
Knight Rider C.elf:     file format elf32-littlearm

Sections:
Idx Name          Size      VMA       LMA       File off  Algn
  0 .isr_vector   000001c4  08000000  08000000  00010000  2**0
                  CONTENTS, ALLOC, LOAD, READONLY, DATA
  1 .text         000046a4  080001d0  080001d0  000101d0  2**4
                  CONTENTS, ALLOC, LOAD, READONLY, CODE
  2 .rodata       00000320  08004878  08004878  00014878  2**3
                  CONTENTS, ALLOC, LOAD, READONLY, DATA
  3 .ARM.extab    00000000  08004b98  08004b98  000201d0  2**0
                  CONTENTS
  4 .ARM          00000000  08004b98  08004b98  000201d0  2**0
                  CONTENTS
  5 .preinit_array 00000000  08004b98  08004b98  000201d0  2**0
                  CONTENTS, ALLOC, LOAD, DATA
  6 .init_array   00000004  08004b98  08004b98  00014b98  2**2
                  CONTENTS, ALLOC, LOAD, DATA
  7 .fini_array   00000004  08004b9c  08004b9c  00014b9c  2**2
                  CONTENTS, ALLOC, LOAD, DATA
  8 .data         000001d0  20000000  08004ba0  00020000  2**2
                  CONTENTS, ALLOC, LOAD, DATA
  9 .bss          0000002c  200001d0  08004d70  000201d0  2**2
                  ALLOC
 10 ._user_heap_stack 00000604  200001fc  08004d70  000201fc  2**0
                  ALLOC
 11 .ARM.attributes 0000002a  00000000  00000000  000201d0  2**0
                  CONTENTS, READONLY
 12 .debug_info   00001257  00000000  00000000  000201fa  2**0
                  CONTENTS, READONLY, DEBUGGING
 13 .debug_abbrev 000003ad  00000000  00000000  00021451  2**0
                  CONTENTS, READONLY, DEBUGGING
 14 .debug_aranges 00000090  00000000  00000000  00021800  2**3
                  CONTENTS, READONLY, DEBUGGING
 15 .debug_ranges 00000058  00000000  00000000  00021890  2**3
                  CONTENTS, READONLY, DEBUGGING
 16 .debug_macro  00001d51  00000000  00000000  000218e8  2**0
                  CONTENTS, READONLY, DEBUGGING
 17 .debug_line   00000b7c  00000000  00000000  00023639  2**0
                  CONTENTS, READONLY, DEBUGGING
 18 .debug_str    000079de  00000000  00000000  000241b5  2**0
                  CONTENTS, READONLY, DEBUGGING
 19 .comment      0000007b  00000000  00000000  0002bb93  2**0
                  CONTENTS, READONLY
 20 .debug_frame  00000f74  00000000  00000000  0002bc10  2**2
                  CONTENTS, READONLY, DEBUGGING

Disassembly of section .text:

080001d0 <__do_global_dtors_aux>:
 80001d0:	b510      	push	{r4, lr}
 80001d2:	4c05      	ldr	r4, [pc, #20]	; (80001e8 <__do_global_dtors_aux+0x18>)
 80001d4:	7823      	ldrb	r3, [r4, #0]
 80001d6:	b933      	cbnz	r3, 80001e6 <__do_global_dtors_aux+0x16>
 80001d8:	4b04      	ldr	r3, [pc, #16]	; (80001ec <__do_global_dtors_aux+0x1c>)
 80001da:	b113      	cbz	r3, 80001e2 <__do_global_dtors_aux+0x12>
 80001dc:	4804      	ldr	r0, [pc, #16]	; (80001f0 <__do_global_dtors_aux+0x20>)
 80001de:	f3af 8000 	nop.w
 80001e2:	2301      	movs	r3, #1
 80001e4:	7023      	strb	r3, [r4, #0]
 80001e6:	bd10      	pop	{r4, pc}
 80001e8:	200001d0 	.word	0x200001d0
 80001ec:	00000000 	.word	0x00000000
 80001f0:	0800485c 	.word	0x0800485c

080001f4 <frame_dummy>:
 80001f4:	b508      	push	{r3, lr}
 80001f6:	4b03      	ldr	r3, [pc, #12]	; (8000204 <frame_dummy+0x10>)
 80001f8:	b11b      	cbz	r3, 8000202 <frame_dummy+0xe>
 80001fa:	4903      	ldr	r1, [pc, #12]	; (8000208 <frame_dummy+0x14>)
 80001fc:	4803      	ldr	r0, [pc, #12]	; (800020c <frame_dummy+0x18>)
 80001fe:	f3af 8000 	nop.w
 8000202:	bd08      	pop	{r3, pc}
 8000204:	00000000 	.word	0x00000000
 8000208:	200001d4 	.word	0x200001d4
 800020c:	0800485c 	.word	0x0800485c

08000210 <strlen>:
 8000210:	4603      	mov	r3, r0
 8000212:	f813 2b01 	ldrb.w	r2, [r3], #1
 8000216:	2a00      	cmp	r2, #0
 8000218:	d1fb      	bne.n	8000212 <strlen+0x2>
 800021a:	1a18      	subs	r0, r3, r0
 800021c:	3801      	subs	r0, #1
 800021e:	4770      	bx	lr

08000220 <memchr>:
 8000220:	f001 01ff 	and.w	r1, r1, #255	; 0xff
 8000224:	2a10      	cmp	r2, #16
 8000226:	db2b      	blt.n	8000280 <memchr+0x60>
 8000228:	f010 0f07 	tst.w	r0, #7
 800022c:	d008      	beq.n	8000240 <memchr+0x20>
 800022e:	f810 3b01 	ldrb.w	r3, [r0], #1
 8000232:	3a01      	subs	r2, #1
 8000234:	428b      	cmp	r3, r1
 8000236:	d02d      	beq.n	8000294 <memchr+0x74>
 8000238:	f010 0f07 	tst.w	r0, #7
 800023c:	b342      	cbz	r2, 8000290 <memchr+0x70>
 800023e:	d1f6      	bne.n	800022e <memchr+0xe>
 8000240:	b4f0      	push	{r4, r5, r6, r7}
 8000242:	ea41 2101 	orr.w	r1, r1, r1, lsl #8
 8000246:	ea41 4101 	orr.w	r1, r1, r1, lsl #16
 800024a:	f022 0407 	bic.w	r4, r2, #7
 800024e:	f07f 0700 	mvns.w	r7, #0
 8000252:	2300      	movs	r3, #0
 8000254:	e8f0 5602 	ldrd	r5, r6, [r0], #8
 8000258:	3c08      	subs	r4, #8
 800025a:	ea85 0501 	eor.w	r5, r5, r1
 800025e:	ea86 0601 	eor.w	r6, r6, r1
 8000262:	fa85 f547 	uadd8	r5, r5, r7
 8000266:	faa3 f587 	sel	r5, r3, r7
 800026a:	fa86 f647 	uadd8	r6, r6, r7
 800026e:	faa5 f687 	sel	r6, r5, r7
 8000272:	b98e      	cbnz	r6, 8000298 <memchr+0x78>
 8000274:	d1ee      	bne.n	8000254 <memchr+0x34>
 8000276:	bcf0      	pop	{r4, r5, r6, r7}
 8000278:	f001 01ff 	and.w	r1, r1, #255	; 0xff
 800027c:	f002 0207 	and.w	r2, r2, #7
 8000280:	b132      	cbz	r2, 8000290 <memchr+0x70>
 8000282:	f810 3b01 	ldrb.w	r3, [r0], #1
 8000286:	3a01      	subs	r2, #1
 8000288:	ea83 0301 	eor.w	r3, r3, r1
 800028c:	b113      	cbz	r3, 8000294 <memchr+0x74>
 800028e:	d1f8      	bne.n	8000282 <memchr+0x62>
 8000290:	2000      	movs	r0, #0
 8000292:	4770      	bx	lr
 8000294:	3801      	subs	r0, #1
 8000296:	4770      	bx	lr
 8000298:	2d00      	cmp	r5, #0
 800029a:	bf06      	itte	eq
 800029c:	4635      	moveq	r5, r6
 800029e:	3803      	subeq	r0, #3
 80002a0:	3807      	subne	r0, #7
 80002a2:	f015 0f01 	tst.w	r5, #1
 80002a6:	d107      	bne.n	80002b8 <memchr+0x98>
 80002a8:	3001      	adds	r0, #1
 80002aa:	f415 7f80 	tst.w	r5, #256	; 0x100
 80002ae:	bf02      	ittt	eq
 80002b0:	3001      	addeq	r0, #1
 80002b2:	f415 3fc0 	tsteq.w	r5, #98304	; 0x18000
 80002b6:	3001      	addeq	r0, #1
 80002b8:	bcf0      	pop	{r4, r5, r6, r7}
 80002ba:	3801      	subs	r0, #1
 80002bc:	4770      	bx	lr
 80002be:	bf00      	nop

080002c0 <__aeabi_drsub>:
 80002c0:	f081 4100 	eor.w	r1, r1, #2147483648	; 0x80000000
 80002c4:	e002      	b.n	80002cc <__adddf3>
 80002c6:	bf00      	nop

080002c8 <__aeabi_dsub>:
 80002c8:	f083 4300 	eor.w	r3, r3, #2147483648	; 0x80000000

080002cc <__adddf3>:
 80002cc:	b530      	push	{r4, r5, lr}
 80002ce:	ea4f 0441 	mov.w	r4, r1, lsl #1
 80002d2:	ea4f 0543 	mov.w	r5, r3, lsl #1
 80002d6:	ea94 0f05 	teq	r4, r5
 80002da:	bf08      	it	eq
 80002dc:	ea90 0f02 	teqeq	r0, r2
 80002e0:	bf1f      	itttt	ne
 80002e2:	ea54 0c00 	orrsne.w	ip, r4, r0
 80002e6:	ea55 0c02 	orrsne.w	ip, r5, r2
 80002ea:	ea7f 5c64 	mvnsne.w	ip, r4, asr #21
 80002ee:	ea7f 5c65 	mvnsne.w	ip, r5, asr #21
 80002f2:	f000 80e2 	beq.w	80004ba <__adddf3+0x1ee>
 80002f6:	ea4f 5454 	mov.w	r4, r4, lsr #21
 80002fa:	ebd4 5555 	rsbs	r5, r4, r5, lsr #21
 80002fe:	bfb8      	it	lt
 8000300:	426d      	neglt	r5, r5
 8000302:	dd0c      	ble.n	800031e <__adddf3+0x52>
 8000304:	442c      	add	r4, r5
 8000306:	ea80 0202 	eor.w	r2, r0, r2
 800030a:	ea81 0303 	eor.w	r3, r1, r3
 800030e:	ea82 0000 	eor.w	r0, r2, r0
 8000312:	ea83 0101 	eor.w	r1, r3, r1
 8000316:	ea80 0202 	eor.w	r2, r0, r2
 800031a:	ea81 0303 	eor.w	r3, r1, r3
 800031e:	2d36      	cmp	r5, #54	; 0x36
 8000320:	bf88      	it	hi
 8000322:	bd30      	pophi	{r4, r5, pc}
 8000324:	f011 4f00 	tst.w	r1, #2147483648	; 0x80000000
 8000328:	ea4f 3101 	mov.w	r1, r1, lsl #12
 800032c:	f44f 1c80 	mov.w	ip, #1048576	; 0x100000
 8000330:	ea4c 3111 	orr.w	r1, ip, r1, lsr #12
 8000334:	d002      	beq.n	800033c <__adddf3+0x70>
 8000336:	4240      	negs	r0, r0
 8000338:	eb61 0141 	sbc.w	r1, r1, r1, lsl #1
 800033c:	f013 4f00 	tst.w	r3, #2147483648	; 0x80000000
 8000340:	ea4f 3303 	mov.w	r3, r3, lsl #12
 8000344:	ea4c 3313 	orr.w	r3, ip, r3, lsr #12
 8000348:	d002      	beq.n	8000350 <__adddf3+0x84>
 800034a:	4252      	negs	r2, r2
 800034c:	eb63 0343 	sbc.w	r3, r3, r3, lsl #1
 8000350:	ea94 0f05 	teq	r4, r5
 8000354:	f000 80a7 	beq.w	80004a6 <__adddf3+0x1da>
 8000358:	f1a4 0401 	sub.w	r4, r4, #1
 800035c:	f1d5 0e20 	rsbs	lr, r5, #32
 8000360:	db0d      	blt.n	800037e <__adddf3+0xb2>
 8000362:	fa02 fc0e 	lsl.w	ip, r2, lr
 8000366:	fa22 f205 	lsr.w	r2, r2, r5
 800036a:	1880      	adds	r0, r0, r2
 800036c:	f141 0100 	adc.w	r1, r1, #0
 8000370:	fa03 f20e 	lsl.w	r2, r3, lr
 8000374:	1880      	adds	r0, r0, r2
 8000376:	fa43 f305 	asr.w	r3, r3, r5
 800037a:	4159      	adcs	r1, r3
 800037c:	e00e      	b.n	800039c <__adddf3+0xd0>
 800037e:	f1a5 0520 	sub.w	r5, r5, #32
 8000382:	f10e 0e20 	add.w	lr, lr, #32
 8000386:	2a01      	cmp	r2, #1
 8000388:	fa03 fc0e 	lsl.w	ip, r3, lr
 800038c:	bf28      	it	cs
 800038e:	f04c 0c02 	orrcs.w	ip, ip, #2
 8000392:	fa43 f305 	asr.w	r3, r3, r5
 8000396:	18c0      	adds	r0, r0, r3
 8000398:	eb51 71e3 	adcs.w	r1, r1, r3, asr #31
 800039c:	f001 4500 	and.w	r5, r1, #2147483648	; 0x80000000
 80003a0:	d507      	bpl.n	80003b2 <__adddf3+0xe6>
 80003a2:	f04f 0e00 	mov.w	lr, #0
 80003a6:	f1dc 0c00 	rsbs	ip, ip, #0
 80003aa:	eb7e 0000 	sbcs.w	r0, lr, r0
 80003ae:	eb6e 0101 	sbc.w	r1, lr, r1
 80003b2:	f5b1 1f80 	cmp.w	r1, #1048576	; 0x100000
 80003b6:	d31b      	bcc.n	80003f0 <__adddf3+0x124>
 80003b8:	f5b1 1f00 	cmp.w	r1, #2097152	; 0x200000
 80003bc:	d30c      	bcc.n	80003d8 <__adddf3+0x10c>
 80003be:	0849      	lsrs	r1, r1, #1
 80003c0:	ea5f 0030 	movs.w	r0, r0, rrx
 80003c4:	ea4f 0c3c 	mov.w	ip, ip, rrx
 80003c8:	f104 0401 	add.w	r4, r4, #1
 80003cc:	ea4f 5244 	mov.w	r2, r4, lsl #21
 80003d0:	f512 0f80 	cmn.w	r2, #4194304	; 0x400000
 80003d4:	f080 809a 	bcs.w	800050c <__adddf3+0x240>
 80003d8:	f1bc 4f00 	cmp.w	ip, #2147483648	; 0x80000000
 80003dc:	bf08      	it	eq
 80003de:	ea5f 0c50 	movseq.w	ip, r0, lsr #1
 80003e2:	f150 0000 	adcs.w	r0, r0, #0
 80003e6:	eb41 5104 	adc.w	r1, r1, r4, lsl #20
 80003ea:	ea41 0105 	orr.w	r1, r1, r5
 80003ee:	bd30      	pop	{r4, r5, pc}
 80003f0:	ea5f 0c4c 	movs.w	ip, ip, lsl #1
 80003f4:	4140      	adcs	r0, r0
 80003f6:	eb41 0101 	adc.w	r1, r1, r1
 80003fa:	f411 1f80 	tst.w	r1, #1048576	; 0x100000
 80003fe:	f1a4 0401 	sub.w	r4, r4, #1
 8000402:	d1e9      	bne.n	80003d8 <__adddf3+0x10c>
 8000404:	f091 0f00 	teq	r1, #0
 8000408:	bf04      	itt	eq
 800040a:	4601      	moveq	r1, r0
 800040c:	2000      	moveq	r0, #0
 800040e:	fab1 f381 	clz	r3, r1
 8000412:	bf08      	it	eq
 8000414:	3320      	addeq	r3, #32
 8000416:	f1a3 030b 	sub.w	r3, r3, #11
 800041a:	f1b3 0220 	subs.w	r2, r3, #32
 800041e:	da0c      	bge.n	800043a <__adddf3+0x16e>
 8000420:	320c      	adds	r2, #12
 8000422:	dd08      	ble.n	8000436 <__adddf3+0x16a>
 8000424:	f102 0c14 	add.w	ip, r2, #20
 8000428:	f1c2 020c 	rsb	r2, r2, #12
 800042c:	fa01 f00c 	lsl.w	r0, r1, ip
 8000430:	fa21 f102 	lsr.w	r1, r1, r2
 8000434:	e00c      	b.n	8000450 <__adddf3+0x184>
 8000436:	f102 0214 	add.w	r2, r2, #20
 800043a:	bfd8      	it	le
 800043c:	f1c2 0c20 	rsble	ip, r2, #32
 8000440:	fa01 f102 	lsl.w	r1, r1, r2
 8000444:	fa20 fc0c 	lsr.w	ip, r0, ip
 8000448:	bfdc      	itt	le
 800044a:	ea41 010c 	orrle.w	r1, r1, ip
 800044e:	4090      	lslle	r0, r2
 8000450:	1ae4      	subs	r4, r4, r3
 8000452:	bfa2      	ittt	ge
 8000454:	eb01 5104 	addge.w	r1, r1, r4, lsl #20
 8000458:	4329      	orrge	r1, r5
 800045a:	bd30      	popge	{r4, r5, pc}
 800045c:	ea6f 0404 	mvn.w	r4, r4
 8000460:	3c1f      	subs	r4, #31
 8000462:	da1c      	bge.n	800049e <__adddf3+0x1d2>
 8000464:	340c      	adds	r4, #12
 8000466:	dc0e      	bgt.n	8000486 <__adddf3+0x1ba>
 8000468:	f104 0414 	add.w	r4, r4, #20
 800046c:	f1c4 0220 	rsb	r2, r4, #32
 8000470:	fa20 f004 	lsr.w	r0, r0, r4
 8000474:	fa01 f302 	lsl.w	r3, r1, r2
 8000478:	ea40 0003 	orr.w	r0, r0, r3
 800047c:	fa21 f304 	lsr.w	r3, r1, r4
 8000480:	ea45 0103 	orr.w	r1, r5, r3
 8000484:	bd30      	pop	{r4, r5, pc}
 8000486:	f1c4 040c 	rsb	r4, r4, #12
 800048a:	f1c4 0220 	rsb	r2, r4, #32
 800048e:	fa20 f002 	lsr.w	r0, r0, r2
 8000492:	fa01 f304 	lsl.w	r3, r1, r4
 8000496:	ea40 0003 	orr.w	r0, r0, r3
 800049a:	4629      	mov	r1, r5
 800049c:	bd30      	pop	{r4, r5, pc}
 800049e:	fa21 f004 	lsr.w	r0, r1, r4
 80004a2:	4629      	mov	r1, r5
 80004a4:	bd30      	pop	{r4, r5, pc}
 80004a6:	f094 0f00 	teq	r4, #0
 80004aa:	f483 1380 	eor.w	r3, r3, #1048576	; 0x100000
 80004ae:	bf06      	itte	eq
 80004b0:	f481 1180 	eoreq.w	r1, r1, #1048576	; 0x100000
 80004b4:	3401      	addeq	r4, #1
 80004b6:	3d01      	subne	r5, #1
 80004b8:	e74e      	b.n	8000358 <__adddf3+0x8c>
 80004ba:	ea7f 5c64 	mvns.w	ip, r4, asr #21
 80004be:	bf18      	it	ne
 80004c0:	ea7f 5c65 	mvnsne.w	ip, r5, asr #21
 80004c4:	d029      	beq.n	800051a <__adddf3+0x24e>
 80004c6:	ea94 0f05 	teq	r4, r5
 80004ca:	bf08      	it	eq
 80004cc:	ea90 0f02 	teqeq	r0, r2
 80004d0:	d005      	beq.n	80004de <__adddf3+0x212>
 80004d2:	ea54 0c00 	orrs.w	ip, r4, r0
 80004d6:	bf04      	itt	eq
 80004d8:	4619      	moveq	r1, r3
 80004da:	4610      	moveq	r0, r2
 80004dc:	bd30      	pop	{r4, r5, pc}
 80004de:	ea91 0f03 	teq	r1, r3
 80004e2:	bf1e      	ittt	ne
 80004e4:	2100      	movne	r1, #0
 80004e6:	2000      	movne	r0, #0
 80004e8:	bd30      	popne	{r4, r5, pc}
 80004ea:	ea5f 5c54 	movs.w	ip, r4, lsr #21
 80004ee:	d105      	bne.n	80004fc <__adddf3+0x230>
 80004f0:	0040      	lsls	r0, r0, #1
 80004f2:	4149      	adcs	r1, r1
 80004f4:	bf28      	it	cs
 80004f6:	f041 4100 	orrcs.w	r1, r1, #2147483648	; 0x80000000
 80004fa:	bd30      	pop	{r4, r5, pc}
 80004fc:	f514 0480 	adds.w	r4, r4, #4194304	; 0x400000
 8000500:	bf3c      	itt	cc
 8000502:	f501 1180 	addcc.w	r1, r1, #1048576	; 0x100000
 8000506:	bd30      	popcc	{r4, r5, pc}
 8000508:	f001 4500 	and.w	r5, r1, #2147483648	; 0x80000000
 800050c:	f045 41fe 	orr.w	r1, r5, #2130706432	; 0x7f000000
 8000510:	f441 0170 	orr.w	r1, r1, #15728640	; 0xf00000
 8000514:	f04f 0000 	mov.w	r0, #0
 8000518:	bd30      	pop	{r4, r5, pc}
 800051a:	ea7f 5c64 	mvns.w	ip, r4, asr #21
 800051e:	bf1a      	itte	ne
 8000520:	4619      	movne	r1, r3
 8000522:	4610      	movne	r0, r2
 8000524:	ea7f 5c65 	mvnseq.w	ip, r5, asr #21
 8000528:	bf1c      	itt	ne
 800052a:	460b      	movne	r3, r1
 800052c:	4602      	movne	r2, r0
 800052e:	ea50 3401 	orrs.w	r4, r0, r1, lsl #12
 8000532:	bf06      	itte	eq
 8000534:	ea52 3503 	orrseq.w	r5, r2, r3, lsl #12
 8000538:	ea91 0f03 	teqeq	r1, r3
 800053c:	f441 2100 	orrne.w	r1, r1, #524288	; 0x80000
 8000540:	bd30      	pop	{r4, r5, pc}
 8000542:	bf00      	nop

08000544 <__aeabi_ui2d>:
 8000544:	f090 0f00 	teq	r0, #0
 8000548:	bf04      	itt	eq
 800054a:	2100      	moveq	r1, #0
 800054c:	4770      	bxeq	lr
 800054e:	b530      	push	{r4, r5, lr}
 8000550:	f44f 6480 	mov.w	r4, #1024	; 0x400
 8000554:	f104 0432 	add.w	r4, r4, #50	; 0x32
 8000558:	f04f 0500 	mov.w	r5, #0
 800055c:	f04f 0100 	mov.w	r1, #0
 8000560:	e750      	b.n	8000404 <__adddf3+0x138>
 8000562:	bf00      	nop

08000564 <__aeabi_i2d>:
 8000564:	f090 0f00 	teq	r0, #0
 8000568:	bf04      	itt	eq
 800056a:	2100      	moveq	r1, #0
 800056c:	4770      	bxeq	lr
 800056e:	b530      	push	{r4, r5, lr}
 8000570:	f44f 6480 	mov.w	r4, #1024	; 0x400
 8000574:	f104 0432 	add.w	r4, r4, #50	; 0x32
 8000578:	f010 4500 	ands.w	r5, r0, #2147483648	; 0x80000000
 800057c:	bf48      	it	mi
 800057e:	4240      	negmi	r0, r0
 8000580:	f04f 0100 	mov.w	r1, #0
 8000584:	e73e      	b.n	8000404 <__adddf3+0x138>
 8000586:	bf00      	nop

08000588 <__aeabi_f2d>:
 8000588:	0042      	lsls	r2, r0, #1
 800058a:	ea4f 01e2 	mov.w	r1, r2, asr #3
 800058e:	ea4f 0131 	mov.w	r1, r1, rrx
 8000592:	ea4f 7002 	mov.w	r0, r2, lsl #28
 8000596:	bf1f      	itttt	ne
 8000598:	f012 437f 	andsne.w	r3, r2, #4278190080	; 0xff000000
 800059c:	f093 4f7f 	teqne	r3, #4278190080	; 0xff000000
 80005a0:	f081 5160 	eorne.w	r1, r1, #939524096	; 0x38000000
 80005a4:	4770      	bxne	lr
 80005a6:	f032 427f 	bics.w	r2, r2, #4278190080	; 0xff000000
 80005aa:	bf08      	it	eq
 80005ac:	4770      	bxeq	lr
 80005ae:	f093 4f7f 	teq	r3, #4278190080	; 0xff000000
 80005b2:	bf04      	itt	eq
 80005b4:	f441 2100 	orreq.w	r1, r1, #524288	; 0x80000
 80005b8:	4770      	bxeq	lr
 80005ba:	b530      	push	{r4, r5, lr}
 80005bc:	f44f 7460 	mov.w	r4, #896	; 0x380
 80005c0:	f001 4500 	and.w	r5, r1, #2147483648	; 0x80000000
 80005c4:	f021 4100 	bic.w	r1, r1, #2147483648	; 0x80000000
 80005c8:	e71c      	b.n	8000404 <__adddf3+0x138>
 80005ca:	bf00      	nop

080005cc <__aeabi_ul2d>:
 80005cc:	ea50 0201 	orrs.w	r2, r0, r1
 80005d0:	bf08      	it	eq
 80005d2:	4770      	bxeq	lr
 80005d4:	b530      	push	{r4, r5, lr}
 80005d6:	f04f 0500 	mov.w	r5, #0
 80005da:	e00a      	b.n	80005f2 <__aeabi_l2d+0x16>

080005dc <__aeabi_l2d>:
 80005dc:	ea50 0201 	orrs.w	r2, r0, r1
 80005e0:	bf08      	it	eq
 80005e2:	4770      	bxeq	lr
 80005e4:	b530      	push	{r4, r5, lr}
 80005e6:	f011 4500 	ands.w	r5, r1, #2147483648	; 0x80000000
 80005ea:	d502      	bpl.n	80005f2 <__aeabi_l2d+0x16>
 80005ec:	4240      	negs	r0, r0
 80005ee:	eb61 0141 	sbc.w	r1, r1, r1, lsl #1
 80005f2:	f44f 6480 	mov.w	r4, #1024	; 0x400
 80005f6:	f104 0432 	add.w	r4, r4, #50	; 0x32
 80005fa:	ea5f 5c91 	movs.w	ip, r1, lsr #22
 80005fe:	f43f aed8 	beq.w	80003b2 <__adddf3+0xe6>
 8000602:	f04f 0203 	mov.w	r2, #3
 8000606:	ea5f 0cdc 	movs.w	ip, ip, lsr #3
 800060a:	bf18      	it	ne
 800060c:	3203      	addne	r2, #3
 800060e:	ea5f 0cdc 	movs.w	ip, ip, lsr #3
 8000612:	bf18      	it	ne
 8000614:	3203      	addne	r2, #3
 8000616:	eb02 02dc 	add.w	r2, r2, ip, lsr #3
 800061a:	f1c2 0320 	rsb	r3, r2, #32
 800061e:	fa00 fc03 	lsl.w	ip, r0, r3
 8000622:	fa20 f002 	lsr.w	r0, r0, r2
 8000626:	fa01 fe03 	lsl.w	lr, r1, r3
 800062a:	ea40 000e 	orr.w	r0, r0, lr
 800062e:	fa21 f102 	lsr.w	r1, r1, r2
 8000632:	4414      	add	r4, r2
 8000634:	e6bd      	b.n	80003b2 <__adddf3+0xe6>
 8000636:	bf00      	nop

08000638 <__aeabi_dmul>:
 8000638:	b570      	push	{r4, r5, r6, lr}
 800063a:	f04f 0cff 	mov.w	ip, #255	; 0xff
 800063e:	f44c 6ce0 	orr.w	ip, ip, #1792	; 0x700
 8000642:	ea1c 5411 	ands.w	r4, ip, r1, lsr #20
 8000646:	bf1d      	ittte	ne
 8000648:	ea1c 5513 	andsne.w	r5, ip, r3, lsr #20
 800064c:	ea94 0f0c 	teqne	r4, ip
 8000650:	ea95 0f0c 	teqne	r5, ip
 8000654:	f000 f8de 	bleq	8000814 <__aeabi_dmul+0x1dc>
 8000658:	442c      	add	r4, r5
 800065a:	ea81 0603 	eor.w	r6, r1, r3
 800065e:	ea21 514c 	bic.w	r1, r1, ip, lsl #21
 8000662:	ea23 534c 	bic.w	r3, r3, ip, lsl #21
 8000666:	ea50 3501 	orrs.w	r5, r0, r1, lsl #12
 800066a:	bf18      	it	ne
 800066c:	ea52 3503 	orrsne.w	r5, r2, r3, lsl #12
 8000670:	f441 1180 	orr.w	r1, r1, #1048576	; 0x100000
 8000674:	f443 1380 	orr.w	r3, r3, #1048576	; 0x100000
 8000678:	d038      	beq.n	80006ec <__aeabi_dmul+0xb4>
 800067a:	fba0 ce02 	umull	ip, lr, r0, r2
 800067e:	f04f 0500 	mov.w	r5, #0
 8000682:	fbe1 e502 	umlal	lr, r5, r1, r2
 8000686:	f006 4200 	and.w	r2, r6, #2147483648	; 0x80000000
 800068a:	fbe0 e503 	umlal	lr, r5, r0, r3
 800068e:	f04f 0600 	mov.w	r6, #0
 8000692:	fbe1 5603 	umlal	r5, r6, r1, r3
 8000696:	f09c 0f00 	teq	ip, #0
 800069a:	bf18      	it	ne
 800069c:	f04e 0e01 	orrne.w	lr, lr, #1
 80006a0:	f1a4 04ff 	sub.w	r4, r4, #255	; 0xff
 80006a4:	f5b6 7f00 	cmp.w	r6, #512	; 0x200
 80006a8:	f564 7440 	sbc.w	r4, r4, #768	; 0x300
 80006ac:	d204      	bcs.n	80006b8 <__aeabi_dmul+0x80>
 80006ae:	ea5f 0e4e 	movs.w	lr, lr, lsl #1
 80006b2:	416d      	adcs	r5, r5
 80006b4:	eb46 0606 	adc.w	r6, r6, r6
 80006b8:	ea42 21c6 	orr.w	r1, r2, r6, lsl #11
 80006bc:	ea41 5155 	orr.w	r1, r1, r5, lsr #21
 80006c0:	ea4f 20c5 	mov.w	r0, r5, lsl #11
 80006c4:	ea40 505e 	orr.w	r0, r0, lr, lsr #21
 80006c8:	ea4f 2ece 	mov.w	lr, lr, lsl #11
 80006cc:	f1b4 0cfd 	subs.w	ip, r4, #253	; 0xfd
 80006d0:	bf88      	it	hi
 80006d2:	f5bc 6fe0 	cmphi.w	ip, #1792	; 0x700
 80006d6:	d81e      	bhi.n	8000716 <__aeabi_dmul+0xde>
 80006d8:	f1be 4f00 	cmp.w	lr, #2147483648	; 0x80000000
 80006dc:	bf08      	it	eq
 80006de:	ea5f 0e50 	movseq.w	lr, r0, lsr #1
 80006e2:	f150 0000 	adcs.w	r0, r0, #0
 80006e6:	eb41 5104 	adc.w	r1, r1, r4, lsl #20
 80006ea:	bd70      	pop	{r4, r5, r6, pc}
 80006ec:	f006 4600 	and.w	r6, r6, #2147483648	; 0x80000000
 80006f0:	ea46 0101 	orr.w	r1, r6, r1
 80006f4:	ea40 0002 	orr.w	r0, r0, r2
 80006f8:	ea81 0103 	eor.w	r1, r1, r3
 80006fc:	ebb4 045c 	subs.w	r4, r4, ip, lsr #1
 8000700:	bfc2      	ittt	gt
 8000702:	ebd4 050c 	rsbsgt	r5, r4, ip
 8000706:	ea41 5104 	orrgt.w	r1, r1, r4, lsl #20
 800070a:	bd70      	popgt	{r4, r5, r6, pc}
 800070c:	f441 1180 	orr.w	r1, r1, #1048576	; 0x100000
 8000710:	f04f 0e00 	mov.w	lr, #0
 8000714:	3c01      	subs	r4, #1
 8000716:	f300 80ab 	bgt.w	8000870 <__aeabi_dmul+0x238>
 800071a:	f114 0f36 	cmn.w	r4, #54	; 0x36
 800071e:	bfde      	ittt	le
 8000720:	2000      	movle	r0, #0
 8000722:	f001 4100 	andle.w	r1, r1, #2147483648	; 0x80000000
 8000726:	bd70      	pople	{r4, r5, r6, pc}
 8000728:	f1c4 0400 	rsb	r4, r4, #0
 800072c:	3c20      	subs	r4, #32
 800072e:	da35      	bge.n	800079c <__aeabi_dmul+0x164>
 8000730:	340c      	adds	r4, #12
 8000732:	dc1b      	bgt.n	800076c <__aeabi_dmul+0x134>
 8000734:	f104 0414 	add.w	r4, r4, #20
 8000738:	f1c4 0520 	rsb	r5, r4, #32
 800073c:	fa00 f305 	lsl.w	r3, r0, r5
 8000740:	fa20 f004 	lsr.w	r0, r0, r4
 8000744:	fa01 f205 	lsl.w	r2, r1, r5
 8000748:	ea40 0002 	orr.w	r0, r0, r2
 800074c:	f001 4200 	and.w	r2, r1, #2147483648	; 0x80000000
 8000750:	f021 4100 	bic.w	r1, r1, #2147483648	; 0x80000000
 8000754:	eb10 70d3 	adds.w	r0, r0, r3, lsr #31
 8000758:	fa21 f604 	lsr.w	r6, r1, r4
 800075c:	eb42 0106 	adc.w	r1, r2, r6
 8000760:	ea5e 0e43 	orrs.w	lr, lr, r3, lsl #1
 8000764:	bf08      	it	eq
 8000766:	ea20 70d3 	biceq.w	r0, r0, r3, lsr #31
 800076a:	bd70      	pop	{r4, r5, r6, pc}
 800076c:	f1c4 040c 	rsb	r4, r4, #12
 8000770:	f1c4 0520 	rsb	r5, r4, #32
 8000774:	fa00 f304 	lsl.w	r3, r0, r4
 8000778:	fa20 f005 	lsr.w	r0, r0, r5
 800077c:	fa01 f204 	lsl.w	r2, r1, r4
 8000780:	ea40 0002 	orr.w	r0, r0, r2
 8000784:	f001 4100 	and.w	r1, r1, #2147483648	; 0x80000000
 8000788:	eb10 70d3 	adds.w	r0, r0, r3, lsr #31
 800078c:	f141 0100 	adc.w	r1, r1, #0
 8000790:	ea5e 0e43 	orrs.w	lr, lr, r3, lsl #1
 8000794:	bf08      	it	eq
 8000796:	ea20 70d3 	biceq.w	r0, r0, r3, lsr #31
 800079a:	bd70      	pop	{r4, r5, r6, pc}
 800079c:	f1c4 0520 	rsb	r5, r4, #32
 80007a0:	fa00 f205 	lsl.w	r2, r0, r5
 80007a4:	ea4e 0e02 	orr.w	lr, lr, r2
 80007a8:	fa20 f304 	lsr.w	r3, r0, r4
 80007ac:	fa01 f205 	lsl.w	r2, r1, r5
 80007b0:	ea43 0302 	orr.w	r3, r3, r2
 80007b4:	fa21 f004 	lsr.w	r0, r1, r4
 80007b8:	f001 4100 	and.w	r1, r1, #2147483648	; 0x80000000
 80007bc:	fa21 f204 	lsr.w	r2, r1, r4
 80007c0:	ea20 0002 	bic.w	r0, r0, r2
 80007c4:	eb00 70d3 	add.w	r0, r0, r3, lsr #31
 80007c8:	ea5e 0e43 	orrs.w	lr, lr, r3, lsl #1
 80007cc:	bf08      	it	eq
 80007ce:	ea20 70d3 	biceq.w	r0, r0, r3, lsr #31
 80007d2:	bd70      	pop	{r4, r5, r6, pc}
 80007d4:	f094 0f00 	teq	r4, #0
 80007d8:	d10f      	bne.n	80007fa <__aeabi_dmul+0x1c2>
 80007da:	f001 4600 	and.w	r6, r1, #2147483648	; 0x80000000
 80007de:	0040      	lsls	r0, r0, #1
 80007e0:	eb41 0101 	adc.w	r1, r1, r1
 80007e4:	f411 1f80 	tst.w	r1, #1048576	; 0x100000
 80007e8:	bf08      	it	eq
 80007ea:	3c01      	subeq	r4, #1
 80007ec:	d0f7      	beq.n	80007de <__aeabi_dmul+0x1a6>
 80007ee:	ea41 0106 	orr.w	r1, r1, r6
 80007f2:	f095 0f00 	teq	r5, #0
 80007f6:	bf18      	it	ne
 80007f8:	4770      	bxne	lr
 80007fa:	f003 4600 	and.w	r6, r3, #2147483648	; 0x80000000
 80007fe:	0052      	lsls	r2, r2, #1
 8000800:	eb43 0303 	adc.w	r3, r3, r3
 8000804:	f413 1f80 	tst.w	r3, #1048576	; 0x100000
 8000808:	bf08      	it	eq
 800080a:	3d01      	subeq	r5, #1
 800080c:	d0f7      	beq.n	80007fe <__aeabi_dmul+0x1c6>
 800080e:	ea43 0306 	orr.w	r3, r3, r6
 8000812:	4770      	bx	lr
 8000814:	ea94 0f0c 	teq	r4, ip
 8000818:	ea0c 5513 	and.w	r5, ip, r3, lsr #20
 800081c:	bf18      	it	ne
 800081e:	ea95 0f0c 	teqne	r5, ip
 8000822:	d00c      	beq.n	800083e <__aeabi_dmul+0x206>
 8000824:	ea50 0641 	orrs.w	r6, r0, r1, lsl #1
 8000828:	bf18      	it	ne
 800082a:	ea52 0643 	orrsne.w	r6, r2, r3, lsl #1
 800082e:	d1d1      	bne.n	80007d4 <__aeabi_dmul+0x19c>
 8000830:	ea81 0103 	eor.w	r1, r1, r3
 8000834:	f001 4100 	and.w	r1, r1, #2147483648	; 0x80000000
 8000838:	f04f 0000 	mov.w	r0, #0
 800083c:	bd70      	pop	{r4, r5, r6, pc}
 800083e:	ea50 0641 	orrs.w	r6, r0, r1, lsl #1
 8000842:	bf06      	itte	eq
 8000844:	4610      	moveq	r0, r2
 8000846:	4619      	moveq	r1, r3
 8000848:	ea52 0643 	orrsne.w	r6, r2, r3, lsl #1
 800084c:	d019      	beq.n	8000882 <__aeabi_dmul+0x24a>
 800084e:	ea94 0f0c 	teq	r4, ip
 8000852:	d102      	bne.n	800085a <__aeabi_dmul+0x222>
 8000854:	ea50 3601 	orrs.w	r6, r0, r1, lsl #12
 8000858:	d113      	bne.n	8000882 <__aeabi_dmul+0x24a>
 800085a:	ea95 0f0c 	teq	r5, ip
 800085e:	d105      	bne.n	800086c <__aeabi_dmul+0x234>
 8000860:	ea52 3603 	orrs.w	r6, r2, r3, lsl #12
 8000864:	bf1c      	itt	ne
 8000866:	4610      	movne	r0, r2
 8000868:	4619      	movne	r1, r3
 800086a:	d10a      	bne.n	8000882 <__aeabi_dmul+0x24a>
 800086c:	ea81 0103 	eor.w	r1, r1, r3
 8000870:	f001 4100 	and.w	r1, r1, #2147483648	; 0x80000000
 8000874:	f041 41fe 	orr.w	r1, r1, #2130706432	; 0x7f000000
 8000878:	f441 0170 	orr.w	r1, r1, #15728640	; 0xf00000
 800087c:	f04f 0000 	mov.w	r0, #0
 8000880:	bd70      	pop	{r4, r5, r6, pc}
 8000882:	f041 41fe 	orr.w	r1, r1, #2130706432	; 0x7f000000
 8000886:	f441 0178 	orr.w	r1, r1, #16252928	; 0xf80000
 800088a:	bd70      	pop	{r4, r5, r6, pc}

0800088c <__aeabi_ddiv>:
 800088c:	b570      	push	{r4, r5, r6, lr}
 800088e:	f04f 0cff 	mov.w	ip, #255	; 0xff
 8000892:	f44c 6ce0 	orr.w	ip, ip, #1792	; 0x700
 8000896:	ea1c 5411 	ands.w	r4, ip, r1, lsr #20
 800089a:	bf1d      	ittte	ne
 800089c:	ea1c 5513 	andsne.w	r5, ip, r3, lsr #20
 80008a0:	ea94 0f0c 	teqne	r4, ip
 80008a4:	ea95 0f0c 	teqne	r5, ip
 80008a8:	f000 f8a7 	bleq	80009fa <__aeabi_ddiv+0x16e>
 80008ac:	eba4 0405 	sub.w	r4, r4, r5
 80008b0:	ea81 0e03 	eor.w	lr, r1, r3
 80008b4:	ea52 3503 	orrs.w	r5, r2, r3, lsl #12
 80008b8:	ea4f 3101 	mov.w	r1, r1, lsl #12
 80008bc:	f000 8088 	beq.w	80009d0 <__aeabi_ddiv+0x144>
 80008c0:	ea4f 3303 	mov.w	r3, r3, lsl #12
 80008c4:	f04f 5580 	mov.w	r5, #268435456	; 0x10000000
 80008c8:	ea45 1313 	orr.w	r3, r5, r3, lsr #4
 80008cc:	ea43 6312 	orr.w	r3, r3, r2, lsr #24
 80008d0:	ea4f 2202 	mov.w	r2, r2, lsl #8
 80008d4:	ea45 1511 	orr.w	r5, r5, r1, lsr #4
 80008d8:	ea45 6510 	orr.w	r5, r5, r0, lsr #24
 80008dc:	ea4f 2600 	mov.w	r6, r0, lsl #8
 80008e0:	f00e 4100 	and.w	r1, lr, #2147483648	; 0x80000000
 80008e4:	429d      	cmp	r5, r3
 80008e6:	bf08      	it	eq
 80008e8:	4296      	cmpeq	r6, r2
 80008ea:	f144 04fd 	adc.w	r4, r4, #253	; 0xfd
 80008ee:	f504 7440 	add.w	r4, r4, #768	; 0x300
 80008f2:	d202      	bcs.n	80008fa <__aeabi_ddiv+0x6e>
 80008f4:	085b      	lsrs	r3, r3, #1
 80008f6:	ea4f 0232 	mov.w	r2, r2, rrx
 80008fa:	1ab6      	subs	r6, r6, r2
 80008fc:	eb65 0503 	sbc.w	r5, r5, r3
 8000900:	085b      	lsrs	r3, r3, #1
 8000902:	ea4f 0232 	mov.w	r2, r2, rrx
 8000906:	f44f 1080 	mov.w	r0, #1048576	; 0x100000
 800090a:	f44f 2c00 	mov.w	ip, #524288	; 0x80000
 800090e:	ebb6 0e02 	subs.w	lr, r6, r2
 8000912:	eb75 0e03 	sbcs.w	lr, r5, r3
 8000916:	bf22      	ittt	cs
 8000918:	1ab6      	subcs	r6, r6, r2
 800091a:	4675      	movcs	r5, lr
 800091c:	ea40 000c 	orrcs.w	r0, r0, ip
 8000920:	085b      	lsrs	r3, r3, #1
 8000922:	ea4f 0232 	mov.w	r2, r2, rrx
 8000926:	ebb6 0e02 	subs.w	lr, r6, r2
 800092a:	eb75 0e03 	sbcs.w	lr, r5, r3
 800092e:	bf22      	ittt	cs
 8000930:	1ab6      	subcs	r6, r6, r2
 8000932:	4675      	movcs	r5, lr
 8000934:	ea40 005c 	orrcs.w	r0, r0, ip, lsr #1
 8000938:	085b      	lsrs	r3, r3, #1
 800093a:	ea4f 0232 	mov.w	r2, r2, rrx
 800093e:	ebb6 0e02 	subs.w	lr, r6, r2
 8000942:	eb75 0e03 	sbcs.w	lr, r5, r3
 8000946:	bf22      	ittt	cs
 8000948:	1ab6      	subcs	r6, r6, r2
 800094a:	4675      	movcs	r5, lr
 800094c:	ea40 009c 	orrcs.w	r0, r0, ip, lsr #2
 8000950:	085b      	lsrs	r3, r3, #1
 8000952:	ea4f 0232 	mov.w	r2, r2, rrx
 8000956:	ebb6 0e02 	subs.w	lr, r6, r2
 800095a:	eb75 0e03 	sbcs.w	lr, r5, r3
 800095e:	bf22      	ittt	cs
 8000960:	1ab6      	subcs	r6, r6, r2
 8000962:	4675      	movcs	r5, lr
 8000964:	ea40 00dc 	orrcs.w	r0, r0, ip, lsr #3
 8000968:	ea55 0e06 	orrs.w	lr, r5, r6
 800096c:	d018      	beq.n	80009a0 <__aeabi_ddiv+0x114>
 800096e:	ea4f 1505 	mov.w	r5, r5, lsl #4
 8000972:	ea45 7516 	orr.w	r5, r5, r6, lsr #28
 8000976:	ea4f 1606 	mov.w	r6, r6, lsl #4
 800097a:	ea4f 03c3 	mov.w	r3, r3, lsl #3
 800097e:	ea43 7352 	orr.w	r3, r3, r2, lsr #29
 8000982:	ea4f 02c2 	mov.w	r2, r2, lsl #3
 8000986:	ea5f 1c1c 	movs.w	ip, ip, lsr #4
 800098a:	d1c0      	bne.n	800090e <__aeabi_ddiv+0x82>
 800098c:	f411 1f80 	tst.w	r1, #1048576	; 0x100000
 8000990:	d10b      	bne.n	80009aa <__aeabi_ddiv+0x11e>
 8000992:	ea41 0100 	orr.w	r1, r1, r0
 8000996:	f04f 0000 	mov.w	r0, #0
 800099a:	f04f 4c00 	mov.w	ip, #2147483648	; 0x80000000
 800099e:	e7b6      	b.n	800090e <__aeabi_ddiv+0x82>
 80009a0:	f411 1f80 	tst.w	r1, #1048576	; 0x100000
 80009a4:	bf04      	itt	eq
 80009a6:	4301      	orreq	r1, r0
 80009a8:	2000      	moveq	r0, #0
 80009aa:	f1b4 0cfd 	subs.w	ip, r4, #253	; 0xfd
 80009ae:	bf88      	it	hi
 80009b0:	f5bc 6fe0 	cmphi.w	ip, #1792	; 0x700
 80009b4:	f63f aeaf 	bhi.w	8000716 <__aeabi_dmul+0xde>
 80009b8:	ebb5 0c03 	subs.w	ip, r5, r3
 80009bc:	bf04      	itt	eq
 80009be:	ebb6 0c02 	subseq.w	ip, r6, r2
 80009c2:	ea5f 0c50 	movseq.w	ip, r0, lsr #1
 80009c6:	f150 0000 	adcs.w	r0, r0, #0
 80009ca:	eb41 5104 	adc.w	r1, r1, r4, lsl #20
 80009ce:	bd70      	pop	{r4, r5, r6, pc}
 80009d0:	f00e 4e00 	and.w	lr, lr, #2147483648	; 0x80000000
 80009d4:	ea4e 3111 	orr.w	r1, lr, r1, lsr #12
 80009d8:	eb14 045c 	adds.w	r4, r4, ip, lsr #1
 80009dc:	bfc2      	ittt	gt
 80009de:	ebd4 050c 	rsbsgt	r5, r4, ip
 80009e2:	ea41 5104 	orrgt.w	r1, r1, r4, lsl #20
 80009e6:	bd70      	popgt	{r4, r5, r6, pc}
 80009e8:	f441 1180 	orr.w	r1, r1, #1048576	; 0x100000
 80009ec:	f04f 0e00 	mov.w	lr, #0
 80009f0:	3c01      	subs	r4, #1
 80009f2:	e690      	b.n	8000716 <__aeabi_dmul+0xde>
 80009f4:	ea45 0e06 	orr.w	lr, r5, r6
 80009f8:	e68d      	b.n	8000716 <__aeabi_dmul+0xde>
 80009fa:	ea0c 5513 	and.w	r5, ip, r3, lsr #20
 80009fe:	ea94 0f0c 	teq	r4, ip
 8000a02:	bf08      	it	eq
 8000a04:	ea95 0f0c 	teqeq	r5, ip
 8000a08:	f43f af3b 	beq.w	8000882 <__aeabi_dmul+0x24a>
 8000a0c:	ea94 0f0c 	teq	r4, ip
 8000a10:	d10a      	bne.n	8000a28 <__aeabi_ddiv+0x19c>
 8000a12:	ea50 3401 	orrs.w	r4, r0, r1, lsl #12
 8000a16:	f47f af34 	bne.w	8000882 <__aeabi_dmul+0x24a>
 8000a1a:	ea95 0f0c 	teq	r5, ip
 8000a1e:	f47f af25 	bne.w	800086c <__aeabi_dmul+0x234>
 8000a22:	4610      	mov	r0, r2
 8000a24:	4619      	mov	r1, r3
 8000a26:	e72c      	b.n	8000882 <__aeabi_dmul+0x24a>
 8000a28:	ea95 0f0c 	teq	r5, ip
 8000a2c:	d106      	bne.n	8000a3c <__aeabi_ddiv+0x1b0>
 8000a2e:	ea52 3503 	orrs.w	r5, r2, r3, lsl #12
 8000a32:	f43f aefd 	beq.w	8000830 <__aeabi_dmul+0x1f8>
 8000a36:	4610      	mov	r0, r2
 8000a38:	4619      	mov	r1, r3
 8000a3a:	e722      	b.n	8000882 <__aeabi_dmul+0x24a>
 8000a3c:	ea50 0641 	orrs.w	r6, r0, r1, lsl #1
 8000a40:	bf18      	it	ne
 8000a42:	ea52 0643 	orrsne.w	r6, r2, r3, lsl #1
 8000a46:	f47f aec5 	bne.w	80007d4 <__aeabi_dmul+0x19c>
 8000a4a:	ea50 0441 	orrs.w	r4, r0, r1, lsl #1
 8000a4e:	f47f af0d 	bne.w	800086c <__aeabi_dmul+0x234>
 8000a52:	ea52 0543 	orrs.w	r5, r2, r3, lsl #1
 8000a56:	f47f aeeb 	bne.w	8000830 <__aeabi_dmul+0x1f8>
 8000a5a:	e712      	b.n	8000882 <__aeabi_dmul+0x24a>

08000a5c <__gedf2>:
 8000a5c:	f04f 3cff 	mov.w	ip, #4294967295
 8000a60:	e006      	b.n	8000a70 <__cmpdf2+0x4>
 8000a62:	bf00      	nop

08000a64 <__ledf2>:
 8000a64:	f04f 0c01 	mov.w	ip, #1
 8000a68:	e002      	b.n	8000a70 <__cmpdf2+0x4>
 8000a6a:	bf00      	nop

08000a6c <__cmpdf2>:
 8000a6c:	f04f 0c01 	mov.w	ip, #1
 8000a70:	f84d cd04 	str.w	ip, [sp, #-4]!
 8000a74:	ea4f 0c41 	mov.w	ip, r1, lsl #1
 8000a78:	ea7f 5c6c 	mvns.w	ip, ip, asr #21
 8000a7c:	ea4f 0c43 	mov.w	ip, r3, lsl #1
 8000a80:	bf18      	it	ne
 8000a82:	ea7f 5c6c 	mvnsne.w	ip, ip, asr #21
 8000a86:	d01b      	beq.n	8000ac0 <__cmpdf2+0x54>
 8000a88:	b001      	add	sp, #4
 8000a8a:	ea50 0c41 	orrs.w	ip, r0, r1, lsl #1
 8000a8e:	bf0c      	ite	eq
 8000a90:	ea52 0c43 	orrseq.w	ip, r2, r3, lsl #1
 8000a94:	ea91 0f03 	teqne	r1, r3
 8000a98:	bf02      	ittt	eq
 8000a9a:	ea90 0f02 	teqeq	r0, r2
 8000a9e:	2000      	moveq	r0, #0
 8000aa0:	4770      	bxeq	lr
 8000aa2:	f110 0f00 	cmn.w	r0, #0
 8000aa6:	ea91 0f03 	teq	r1, r3
 8000aaa:	bf58      	it	pl
 8000aac:	4299      	cmppl	r1, r3
 8000aae:	bf08      	it	eq
 8000ab0:	4290      	cmpeq	r0, r2
 8000ab2:	bf2c      	ite	cs
 8000ab4:	17d8      	asrcs	r0, r3, #31
 8000ab6:	ea6f 70e3 	mvncc.w	r0, r3, asr #31
 8000aba:	f040 0001 	orr.w	r0, r0, #1
 8000abe:	4770      	bx	lr
 8000ac0:	ea4f 0c41 	mov.w	ip, r1, lsl #1
 8000ac4:	ea7f 5c6c 	mvns.w	ip, ip, asr #21
 8000ac8:	d102      	bne.n	8000ad0 <__cmpdf2+0x64>
 8000aca:	ea50 3c01 	orrs.w	ip, r0, r1, lsl #12
 8000ace:	d107      	bne.n	8000ae0 <__cmpdf2+0x74>
 8000ad0:	ea4f 0c43 	mov.w	ip, r3, lsl #1
 8000ad4:	ea7f 5c6c 	mvns.w	ip, ip, asr #21
 8000ad8:	d1d6      	bne.n	8000a88 <__cmpdf2+0x1c>
 8000ada:	ea52 3c03 	orrs.w	ip, r2, r3, lsl #12
 8000ade:	d0d3      	beq.n	8000a88 <__cmpdf2+0x1c>
 8000ae0:	f85d 0b04 	ldr.w	r0, [sp], #4
 8000ae4:	4770      	bx	lr
 8000ae6:	bf00      	nop

08000ae8 <__aeabi_cdrcmple>:
 8000ae8:	4684      	mov	ip, r0
 8000aea:	4610      	mov	r0, r2
 8000aec:	4662      	mov	r2, ip
 8000aee:	468c      	mov	ip, r1
 8000af0:	4619      	mov	r1, r3
 8000af2:	4663      	mov	r3, ip
 8000af4:	e000      	b.n	8000af8 <__aeabi_cdcmpeq>
 8000af6:	bf00      	nop

08000af8 <__aeabi_cdcmpeq>:
 8000af8:	b501      	push	{r0, lr}
 8000afa:	f7ff ffb7 	bl	8000a6c <__cmpdf2>
 8000afe:	2800      	cmp	r0, #0
 8000b00:	bf48      	it	mi
 8000b02:	f110 0f00 	cmnmi.w	r0, #0
 8000b06:	bd01      	pop	{r0, pc}

08000b08 <__aeabi_dcmpeq>:
 8000b08:	f84d ed08 	str.w	lr, [sp, #-8]!
 8000b0c:	f7ff fff4 	bl	8000af8 <__aeabi_cdcmpeq>
 8000b10:	bf0c      	ite	eq
 8000b12:	2001      	moveq	r0, #1
 8000b14:	2000      	movne	r0, #0
 8000b16:	f85d fb08 	ldr.w	pc, [sp], #8
 8000b1a:	bf00      	nop

08000b1c <__aeabi_dcmplt>:
 8000b1c:	f84d ed08 	str.w	lr, [sp, #-8]!
 8000b20:	f7ff ffea 	bl	8000af8 <__aeabi_cdcmpeq>
 8000b24:	bf34      	ite	cc
 8000b26:	2001      	movcc	r0, #1
 8000b28:	2000      	movcs	r0, #0
 8000b2a:	f85d fb08 	ldr.w	pc, [sp], #8
 8000b2e:	bf00      	nop

08000b30 <__aeabi_dcmple>:
 8000b30:	f84d ed08 	str.w	lr, [sp, #-8]!
 8000b34:	f7ff ffe0 	bl	8000af8 <__aeabi_cdcmpeq>
 8000b38:	bf94      	ite	ls
 8000b3a:	2001      	movls	r0, #1
 8000b3c:	2000      	movhi	r0, #0
 8000b3e:	f85d fb08 	ldr.w	pc, [sp], #8
 8000b42:	bf00      	nop

08000b44 <__aeabi_dcmpge>:
 8000b44:	f84d ed08 	str.w	lr, [sp, #-8]!
 8000b48:	f7ff ffce 	bl	8000ae8 <__aeabi_cdrcmple>
 8000b4c:	bf94      	ite	ls
 8000b4e:	2001      	movls	r0, #1
 8000b50:	2000      	movhi	r0, #0
 8000b52:	f85d fb08 	ldr.w	pc, [sp], #8
 8000b56:	bf00      	nop

08000b58 <__aeabi_dcmpgt>:
 8000b58:	f84d ed08 	str.w	lr, [sp, #-8]!
 8000b5c:	f7ff ffc4 	bl	8000ae8 <__aeabi_cdrcmple>
 8000b60:	bf34      	ite	cc
 8000b62:	2001      	movcc	r0, #1
 8000b64:	2000      	movcs	r0, #0
 8000b66:	f85d fb08 	ldr.w	pc, [sp], #8
 8000b6a:	bf00      	nop

08000b6c <__aeabi_dcmpun>:
 8000b6c:	ea4f 0c41 	mov.w	ip, r1, lsl #1
 8000b70:	ea7f 5c6c 	mvns.w	ip, ip, asr #21
 8000b74:	d102      	bne.n	8000b7c <__aeabi_dcmpun+0x10>
 8000b76:	ea50 3c01 	orrs.w	ip, r0, r1, lsl #12
 8000b7a:	d10a      	bne.n	8000b92 <__aeabi_dcmpun+0x26>
 8000b7c:	ea4f 0c43 	mov.w	ip, r3, lsl #1
 8000b80:	ea7f 5c6c 	mvns.w	ip, ip, asr #21
 8000b84:	d102      	bne.n	8000b8c <__aeabi_dcmpun+0x20>
 8000b86:	ea52 3c03 	orrs.w	ip, r2, r3, lsl #12
 8000b8a:	d102      	bne.n	8000b92 <__aeabi_dcmpun+0x26>
 8000b8c:	f04f 0000 	mov.w	r0, #0
 8000b90:	4770      	bx	lr
 8000b92:	f04f 0001 	mov.w	r0, #1
 8000b96:	4770      	bx	lr

08000b98 <__aeabi_d2iz>:
 8000b98:	ea4f 0241 	mov.w	r2, r1, lsl #1
 8000b9c:	f512 1200 	adds.w	r2, r2, #2097152	; 0x200000
 8000ba0:	d215      	bcs.n	8000bce <__aeabi_d2iz+0x36>
 8000ba2:	d511      	bpl.n	8000bc8 <__aeabi_d2iz+0x30>
 8000ba4:	f46f 7378 	mvn.w	r3, #992	; 0x3e0
 8000ba8:	ebb3 5262 	subs.w	r2, r3, r2, asr #21
 8000bac:	d912      	bls.n	8000bd4 <__aeabi_d2iz+0x3c>
 8000bae:	ea4f 23c1 	mov.w	r3, r1, lsl #11
 8000bb2:	f043 4300 	orr.w	r3, r3, #2147483648	; 0x80000000
 8000bb6:	ea43 5350 	orr.w	r3, r3, r0, lsr #21
 8000bba:	f011 4f00 	tst.w	r1, #2147483648	; 0x80000000
 8000bbe:	fa23 f002 	lsr.w	r0, r3, r2
 8000bc2:	bf18      	it	ne
 8000bc4:	4240      	negne	r0, r0
 8000bc6:	4770      	bx	lr
 8000bc8:	f04f 0000 	mov.w	r0, #0
 8000bcc:	4770      	bx	lr
 8000bce:	ea50 3001 	orrs.w	r0, r0, r1, lsl #12
 8000bd2:	d105      	bne.n	8000be0 <__aeabi_d2iz+0x48>
 8000bd4:	f011 4000 	ands.w	r0, r1, #2147483648	; 0x80000000
 8000bd8:	bf08      	it	eq
 8000bda:	f06f 4000 	mvneq.w	r0, #2147483648	; 0x80000000
 8000bde:	4770      	bx	lr
 8000be0:	f04f 0000 	mov.w	r0, #0
 8000be4:	4770      	bx	lr
 8000be6:	bf00      	nop

08000be8 <__aeabi_d2uiz>:
 8000be8:	004a      	lsls	r2, r1, #1
 8000bea:	d211      	bcs.n	8000c10 <__aeabi_d2uiz+0x28>
 8000bec:	f512 1200 	adds.w	r2, r2, #2097152	; 0x200000
 8000bf0:	d211      	bcs.n	8000c16 <__aeabi_d2uiz+0x2e>
 8000bf2:	d50d      	bpl.n	8000c10 <__aeabi_d2uiz+0x28>
 8000bf4:	f46f 7378 	mvn.w	r3, #992	; 0x3e0
 8000bf8:	ebb3 5262 	subs.w	r2, r3, r2, asr #21
 8000bfc:	d40e      	bmi.n	8000c1c <__aeabi_d2uiz+0x34>
 8000bfe:	ea4f 23c1 	mov.w	r3, r1, lsl #11
 8000c02:	f043 4300 	orr.w	r3, r3, #2147483648	; 0x80000000
 8000c06:	ea43 5350 	orr.w	r3, r3, r0, lsr #21
 8000c0a:	fa23 f002 	lsr.w	r0, r3, r2
 8000c0e:	4770      	bx	lr
 8000c10:	f04f 0000 	mov.w	r0, #0
 8000c14:	4770      	bx	lr
 8000c16:	ea50 3001 	orrs.w	r0, r0, r1, lsl #12
 8000c1a:	d102      	bne.n	8000c22 <__aeabi_d2uiz+0x3a>
 8000c1c:	f04f 30ff 	mov.w	r0, #4294967295
 8000c20:	4770      	bx	lr
 8000c22:	f04f 0000 	mov.w	r0, #0
 8000c26:	4770      	bx	lr

08000c28 <__aeabi_d2f>:
 8000c28:	ea4f 0241 	mov.w	r2, r1, lsl #1
 8000c2c:	f1b2 43e0 	subs.w	r3, r2, #1879048192	; 0x70000000
 8000c30:	bf24      	itt	cs
 8000c32:	f5b3 1c00 	subscs.w	ip, r3, #2097152	; 0x200000
 8000c36:	f1dc 5cfe 	rsbscs	ip, ip, #532676608	; 0x1fc00000
 8000c3a:	d90d      	bls.n	8000c58 <__aeabi_d2f+0x30>
 8000c3c:	f001 4c00 	and.w	ip, r1, #2147483648	; 0x80000000
 8000c40:	ea4f 02c0 	mov.w	r2, r0, lsl #3
 8000c44:	ea4c 7050 	orr.w	r0, ip, r0, lsr #29
 8000c48:	f1b2 4f00 	cmp.w	r2, #2147483648	; 0x80000000
 8000c4c:	eb40 0083 	adc.w	r0, r0, r3, lsl #2
 8000c50:	bf08      	it	eq
 8000c52:	f020 0001 	biceq.w	r0, r0, #1
 8000c56:	4770      	bx	lr
 8000c58:	f011 4f80 	tst.w	r1, #1073741824	; 0x40000000
 8000c5c:	d121      	bne.n	8000ca2 <__aeabi_d2f+0x7a>
 8000c5e:	f113 7238 	adds.w	r2, r3, #48234496	; 0x2e00000
 8000c62:	bfbc      	itt	lt
 8000c64:	f001 4000 	andlt.w	r0, r1, #2147483648	; 0x80000000
 8000c68:	4770      	bxlt	lr
 8000c6a:	f441 1180 	orr.w	r1, r1, #1048576	; 0x100000
 8000c6e:	ea4f 5252 	mov.w	r2, r2, lsr #21
 8000c72:	f1c2 0218 	rsb	r2, r2, #24
 8000c76:	f1c2 0c20 	rsb	ip, r2, #32
 8000c7a:	fa10 f30c 	lsls.w	r3, r0, ip
 8000c7e:	fa20 f002 	lsr.w	r0, r0, r2
 8000c82:	bf18      	it	ne
 8000c84:	f040 0001 	orrne.w	r0, r0, #1
 8000c88:	ea4f 23c1 	mov.w	r3, r1, lsl #11
 8000c8c:	ea4f 23d3 	mov.w	r3, r3, lsr #11
 8000c90:	fa03 fc0c 	lsl.w	ip, r3, ip
 8000c94:	ea40 000c 	orr.w	r0, r0, ip
 8000c98:	fa23 f302 	lsr.w	r3, r3, r2
 8000c9c:	ea4f 0343 	mov.w	r3, r3, lsl #1
 8000ca0:	e7cc      	b.n	8000c3c <__aeabi_d2f+0x14>
 8000ca2:	ea7f 5362 	mvns.w	r3, r2, asr #21
 8000ca6:	d107      	bne.n	8000cb8 <__aeabi_d2f+0x90>
 8000ca8:	ea50 3301 	orrs.w	r3, r0, r1, lsl #12
 8000cac:	bf1e      	ittt	ne
 8000cae:	f04f 40fe 	movne.w	r0, #2130706432	; 0x7f000000
 8000cb2:	f440 0040 	orrne.w	r0, r0, #12582912	; 0xc00000
 8000cb6:	4770      	bxne	lr
 8000cb8:	f001 4000 	and.w	r0, r1, #2147483648	; 0x80000000
 8000cbc:	f040 40fe 	orr.w	r0, r0, #2130706432	; 0x7f000000
 8000cc0:	f440 0000 	orr.w	r0, r0, #8388608	; 0x800000
 8000cc4:	4770      	bx	lr
 8000cc6:	bf00      	nop

08000cc8 <main>:

#include <stdio.h>
#include "embedded.h"

// main
int main(void){
 8000cc8:	b580      	push	{r7, lr}
 8000cca:	af00      	add	r7, sp, #0

	delay_ms(5);
 8000ccc:	2005      	movs	r0, #5
 8000cce:	f000 f82f 	bl	8000d30 <delay_ms>

	return 0;
 8000cd2:	2300      	movs	r3, #0
}
 8000cd4:	4618      	mov	r0, r3
 8000cd6:	bd80      	pop	{r7, pc}

08000cd8 <_sbrk>:
/**
 _sbrk
 Increase program data space. Malloc and related functions depend on this
**/
caddr_t _sbrk(int incr)
{
 8000cd8:	b580      	push	{r7, lr}
 8000cda:	b084      	sub	sp, #16
 8000cdc:	af00      	add	r7, sp, #0
 8000cde:	6078      	str	r0, [r7, #4]
	extern char end asm("end");
	static char *heap_end;
	char *prev_heap_end;

	if (heap_end == 0)
 8000ce0:	4b11      	ldr	r3, [pc, #68]	; (8000d28 <_sbrk+0x50>)
 8000ce2:	681b      	ldr	r3, [r3, #0]
 8000ce4:	2b00      	cmp	r3, #0
 8000ce6:	d102      	bne.n	8000cee <_sbrk+0x16>
		heap_end = &end;
 8000ce8:	4b0f      	ldr	r3, [pc, #60]	; (8000d28 <_sbrk+0x50>)
 8000cea:	4a10      	ldr	r2, [pc, #64]	; (8000d2c <_sbrk+0x54>)
 8000cec:	601a      	str	r2, [r3, #0]

	prev_heap_end = heap_end;
 8000cee:	4b0e      	ldr	r3, [pc, #56]	; (8000d28 <_sbrk+0x50>)
 8000cf0:	681b      	ldr	r3, [r3, #0]
 8000cf2:	60fb      	str	r3, [r7, #12]
	if (heap_end + incr > stack_ptr)
 8000cf4:	4b0c      	ldr	r3, [pc, #48]	; (8000d28 <_sbrk+0x50>)
 8000cf6:	681a      	ldr	r2, [r3, #0]
 8000cf8:	687b      	ldr	r3, [r7, #4]
 8000cfa:	4413      	add	r3, r2
 8000cfc:	466a      	mov	r2, sp
 8000cfe:	4293      	cmp	r3, r2
 8000d00:	d907      	bls.n	8000d12 <_sbrk+0x3a>
	{
		errno = ENOMEM;
 8000d02:	f000 f849 	bl	8000d98 <__errno>
 8000d06:	4602      	mov	r2, r0
 8000d08:	230c      	movs	r3, #12
 8000d0a:	6013      	str	r3, [r2, #0]
		return (caddr_t) -1;
 8000d0c:	f04f 33ff 	mov.w	r3, #4294967295
 8000d10:	e006      	b.n	8000d20 <_sbrk+0x48>
	}

	heap_end += incr;
 8000d12:	4b05      	ldr	r3, [pc, #20]	; (8000d28 <_sbrk+0x50>)
 8000d14:	681a      	ldr	r2, [r3, #0]
 8000d16:	687b      	ldr	r3, [r7, #4]
 8000d18:	4413      	add	r3, r2
 8000d1a:	4a03      	ldr	r2, [pc, #12]	; (8000d28 <_sbrk+0x50>)
 8000d1c:	6013      	str	r3, [r2, #0]

	return (caddr_t) prev_heap_end;
 8000d1e:	68fb      	ldr	r3, [r7, #12]
}
 8000d20:	4618      	mov	r0, r3
 8000d22:	3710      	adds	r7, #16
 8000d24:	46bd      	mov	sp, r7
 8000d26:	bd80      	pop	{r7, pc}
 8000d28:	200001ec 	.word	0x200001ec
 8000d2c:	20000200 	.word	0x20000200

08000d30 <delay_ms>:
#define ENABLE = 1<<0
#define CLKSOURCE = 1<<2
#define STK_CTRL = 0
#define COUNT_FLAG = 1<<16

void delay_ms(int delay) {
 8000d30:	b480      	push	{r7}
 8000d32:	b083      	sub	sp, #12
 8000d34:	af00      	add	r7, sp, #0
 8000d36:	6078      	str	r0, [r7, #4]

}
 8000d38:	bf00      	nop
 8000d3a:	370c      	adds	r7, #12
 8000d3c:	46bd      	mov	sp, r7
 8000d3e:	bc80      	pop	{r7}
 8000d40:	4770      	bx	lr
	...

08000d44 <Reset_Handler>:

  .section .text.Reset_Handler
  .weak Reset_Handler
  .type Reset_Handler, %function
Reset_Handler:
  ldr   r0, =_estack
 8000d44:	480d      	ldr	r0, [pc, #52]	; (8000d7c <LoopForever+0x2>)
  mov   sp, r0          /* set stack pointer */
 8000d46:	4685      	mov	sp, r0

/* Copy the data segment initializers from flash to SRAM */
  ldr r0, =_sdata
 8000d48:	480d      	ldr	r0, [pc, #52]	; (8000d80 <LoopForever+0x6>)
  ldr r1, =_edata
 8000d4a:	490e      	ldr	r1, [pc, #56]	; (8000d84 <LoopForever+0xa>)
  ldr r2, =_sidata
 8000d4c:	4a0e      	ldr	r2, [pc, #56]	; (8000d88 <LoopForever+0xe>)
  movs r3, #0
 8000d4e:	2300      	movs	r3, #0
  b LoopCopyDataInit
 8000d50:	e002      	b.n	8000d58 <LoopCopyDataInit>

08000d52 <CopyDataInit>:

CopyDataInit:
  ldr r4, [r2, r3]
 8000d52:	58d4      	ldr	r4, [r2, r3]
  str r4, [r0, r3]
 8000d54:	50c4      	str	r4, [r0, r3]
  adds r3, r3, #4
 8000d56:	3304      	adds	r3, #4

08000d58 <LoopCopyDataInit>:

LoopCopyDataInit:
  adds r4, r0, r3
 8000d58:	18c4      	adds	r4, r0, r3
  cmp r4, r1
 8000d5a:	428c      	cmp	r4, r1
  bcc CopyDataInit
 8000d5c:	d3f9      	bcc.n	8000d52 <CopyDataInit>

/* Zero fill the bss segment. */
  ldr r2, =_sbss
 8000d5e:	4a0b      	ldr	r2, [pc, #44]	; (8000d8c <LoopForever+0x12>)
  ldr r4, =_ebss
 8000d60:	4c0b      	ldr	r4, [pc, #44]	; (8000d90 <LoopForever+0x16>)
  movs r3, #0
 8000d62:	2300      	movs	r3, #0
  b LoopFillZerobss
 8000d64:	e001      	b.n	8000d6a <LoopFillZerobss>

08000d66 <FillZerobss>:

FillZerobss:
  str  r3, [r2]
 8000d66:	6013      	str	r3, [r2, #0]
  adds r2, r2, #4
 8000d68:	3204      	adds	r2, #4

08000d6a <LoopFillZerobss>:

LoopFillZerobss:
  cmp r2, r4
 8000d6a:	42a2      	cmp	r2, r4
  bcc FillZerobss
 8000d6c:	d3fb      	bcc.n	8000d66 <FillZerobss>

/* Call the clock system intitialization function.*/
  bl  SystemInit
 8000d6e:	f3af 8000 	nop.w
/* Call static constructors */
  bl __libc_init_array
 8000d72:	f000 f817 	bl	8000da4 <__libc_init_array>
/* Call the application's entry point.*/
  bl main
 8000d76:	f7ff ffa7 	bl	8000cc8 <main>

08000d7a <LoopForever>:

LoopForever:
    b LoopForever
 8000d7a:	e7fe      	b.n	8000d7a <LoopForever>
  ldr   r0, =_estack
 8000d7c:	20020000 	.word	0x20020000
  ldr r0, =_sdata
 8000d80:	20000000 	.word	0x20000000
  ldr r1, =_edata
 8000d84:	200001d0 	.word	0x200001d0
  ldr r2, =_sidata
 8000d88:	08004ba0 	.word	0x08004ba0
  ldr r2, =_sbss
 8000d8c:	200001d0 	.word	0x200001d0
  ldr r4, =_ebss
 8000d90:	200001fc 	.word	0x200001fc

08000d94 <ADC_IRQHandler>:
 * @retval : None
*/
  .section .text.Default_Handler,"ax",%progbits
Default_Handler:
Infinite_Loop:
  b Infinite_Loop
 8000d94:	e7fe      	b.n	8000d94 <ADC_IRQHandler>
	...

08000d98 <__errno>:
 8000d98:	4b01      	ldr	r3, [pc, #4]	; (8000da0 <__errno+0x8>)
 8000d9a:	6818      	ldr	r0, [r3, #0]
 8000d9c:	4770      	bx	lr
 8000d9e:	bf00      	nop
 8000da0:	20000000 	.word	0x20000000

08000da4 <__libc_init_array>:
 8000da4:	b570      	push	{r4, r5, r6, lr}
 8000da6:	4e0d      	ldr	r6, [pc, #52]	; (8000ddc <__libc_init_array+0x38>)
 8000da8:	4c0d      	ldr	r4, [pc, #52]	; (8000de0 <__libc_init_array+0x3c>)
 8000daa:	1ba4      	subs	r4, r4, r6
 8000dac:	10a4      	asrs	r4, r4, #2
 8000dae:	2500      	movs	r5, #0
 8000db0:	42a5      	cmp	r5, r4
 8000db2:	d109      	bne.n	8000dc8 <__libc_init_array+0x24>
 8000db4:	4e0b      	ldr	r6, [pc, #44]	; (8000de4 <__libc_init_array+0x40>)
 8000db6:	4c0c      	ldr	r4, [pc, #48]	; (8000de8 <__libc_init_array+0x44>)
 8000db8:	f003 fd50 	bl	800485c <_init>
 8000dbc:	1ba4      	subs	r4, r4, r6
 8000dbe:	10a4      	asrs	r4, r4, #2
 8000dc0:	2500      	movs	r5, #0
 8000dc2:	42a5      	cmp	r5, r4
 8000dc4:	d105      	bne.n	8000dd2 <__libc_init_array+0x2e>
 8000dc6:	bd70      	pop	{r4, r5, r6, pc}
 8000dc8:	f856 3025 	ldr.w	r3, [r6, r5, lsl #2]
 8000dcc:	4798      	blx	r3
 8000dce:	3501      	adds	r5, #1
 8000dd0:	e7ee      	b.n	8000db0 <__libc_init_array+0xc>
 8000dd2:	f856 3025 	ldr.w	r3, [r6, r5, lsl #2]
 8000dd6:	4798      	blx	r3
 8000dd8:	3501      	adds	r5, #1
 8000dda:	e7f2      	b.n	8000dc2 <__libc_init_array+0x1e>
 8000ddc:	08004b98 	.word	0x08004b98
 8000de0:	08004b98 	.word	0x08004b98
 8000de4:	08004b98 	.word	0x08004b98
 8000de8:	08004b9c 	.word	0x08004b9c

08000dec <memset>:
 8000dec:	4402      	add	r2, r0
 8000dee:	4603      	mov	r3, r0
 8000df0:	4293      	cmp	r3, r2
 8000df2:	d100      	bne.n	8000df6 <memset+0xa>
 8000df4:	4770      	bx	lr
 8000df6:	f803 1b01 	strb.w	r1, [r3], #1
 8000dfa:	e7f9      	b.n	8000df0 <memset+0x4>

08000dfc <__cvt>:
 8000dfc:	e92d 47f0 	stmdb	sp!, {r4, r5, r6, r7, r8, r9, sl, lr}
 8000e00:	b088      	sub	sp, #32
 8000e02:	2b00      	cmp	r3, #0
 8000e04:	9f14      	ldr	r7, [sp, #80]	; 0x50
 8000e06:	9d10      	ldr	r5, [sp, #64]	; 0x40
 8000e08:	e9dd 1a12 	ldrd	r1, sl, [sp, #72]	; 0x48
 8000e0c:	461e      	mov	r6, r3
 8000e0e:	f027 0720 	bic.w	r7, r7, #32
 8000e12:	bfbb      	ittet	lt
 8000e14:	f103 4300 	addlt.w	r3, r3, #2147483648	; 0x80000000
 8000e18:	461e      	movlt	r6, r3
 8000e1a:	2300      	movge	r3, #0
 8000e1c:	232d      	movlt	r3, #45	; 0x2d
 8000e1e:	2f46      	cmp	r7, #70	; 0x46
 8000e20:	4614      	mov	r4, r2
 8000e22:	700b      	strb	r3, [r1, #0]
 8000e24:	d004      	beq.n	8000e30 <__cvt+0x34>
 8000e26:	2f45      	cmp	r7, #69	; 0x45
 8000e28:	d100      	bne.n	8000e2c <__cvt+0x30>
 8000e2a:	3501      	adds	r5, #1
 8000e2c:	2302      	movs	r3, #2
 8000e2e:	e000      	b.n	8000e32 <__cvt+0x36>
 8000e30:	2303      	movs	r3, #3
 8000e32:	aa07      	add	r2, sp, #28
 8000e34:	9204      	str	r2, [sp, #16]
 8000e36:	aa06      	add	r2, sp, #24
 8000e38:	e9cd a202 	strd	sl, r2, [sp, #8]
 8000e3c:	e9cd 3500 	strd	r3, r5, [sp]
 8000e40:	4622      	mov	r2, r4
 8000e42:	4633      	mov	r3, r6
 8000e44:	f001 fd78 	bl	8002938 <_dtoa_r>
 8000e48:	2f47      	cmp	r7, #71	; 0x47
 8000e4a:	4680      	mov	r8, r0
 8000e4c:	d102      	bne.n	8000e54 <__cvt+0x58>
 8000e4e:	9b11      	ldr	r3, [sp, #68]	; 0x44
 8000e50:	07db      	lsls	r3, r3, #31
 8000e52:	d526      	bpl.n	8000ea2 <__cvt+0xa6>
 8000e54:	2f46      	cmp	r7, #70	; 0x46
 8000e56:	eb08 0905 	add.w	r9, r8, r5
 8000e5a:	d111      	bne.n	8000e80 <__cvt+0x84>
 8000e5c:	f898 3000 	ldrb.w	r3, [r8]
 8000e60:	2b30      	cmp	r3, #48	; 0x30
 8000e62:	d10a      	bne.n	8000e7a <__cvt+0x7e>
 8000e64:	2200      	movs	r2, #0
 8000e66:	2300      	movs	r3, #0
 8000e68:	4620      	mov	r0, r4
 8000e6a:	4631      	mov	r1, r6
 8000e6c:	f7ff fe4c 	bl	8000b08 <__aeabi_dcmpeq>
 8000e70:	b918      	cbnz	r0, 8000e7a <__cvt+0x7e>
 8000e72:	f1c5 0501 	rsb	r5, r5, #1
 8000e76:	f8ca 5000 	str.w	r5, [sl]
 8000e7a:	f8da 3000 	ldr.w	r3, [sl]
 8000e7e:	4499      	add	r9, r3
 8000e80:	2200      	movs	r2, #0
 8000e82:	2300      	movs	r3, #0
 8000e84:	4620      	mov	r0, r4
 8000e86:	4631      	mov	r1, r6
 8000e88:	f7ff fe3e 	bl	8000b08 <__aeabi_dcmpeq>
 8000e8c:	b938      	cbnz	r0, 8000e9e <__cvt+0xa2>
 8000e8e:	2230      	movs	r2, #48	; 0x30
 8000e90:	9b07      	ldr	r3, [sp, #28]
 8000e92:	454b      	cmp	r3, r9
 8000e94:	d205      	bcs.n	8000ea2 <__cvt+0xa6>
 8000e96:	1c59      	adds	r1, r3, #1
 8000e98:	9107      	str	r1, [sp, #28]
 8000e9a:	701a      	strb	r2, [r3, #0]
 8000e9c:	e7f8      	b.n	8000e90 <__cvt+0x94>
 8000e9e:	f8cd 901c 	str.w	r9, [sp, #28]
 8000ea2:	9b07      	ldr	r3, [sp, #28]
 8000ea4:	9a15      	ldr	r2, [sp, #84]	; 0x54
 8000ea6:	eba3 0308 	sub.w	r3, r3, r8
 8000eaa:	4640      	mov	r0, r8
 8000eac:	6013      	str	r3, [r2, #0]
 8000eae:	b008      	add	sp, #32
 8000eb0:	e8bd 87f0 	ldmia.w	sp!, {r4, r5, r6, r7, r8, r9, sl, pc}

08000eb4 <__exponent>:
 8000eb4:	b5f7      	push	{r0, r1, r2, r4, r5, r6, r7, lr}
 8000eb6:	2900      	cmp	r1, #0
 8000eb8:	4604      	mov	r4, r0
 8000eba:	bfba      	itte	lt
 8000ebc:	4249      	neglt	r1, r1
 8000ebe:	232d      	movlt	r3, #45	; 0x2d
 8000ec0:	232b      	movge	r3, #43	; 0x2b
 8000ec2:	2909      	cmp	r1, #9
 8000ec4:	f804 2b02 	strb.w	r2, [r4], #2
 8000ec8:	7043      	strb	r3, [r0, #1]
 8000eca:	dd20      	ble.n	8000f0e <__exponent+0x5a>
 8000ecc:	f10d 0307 	add.w	r3, sp, #7
 8000ed0:	461f      	mov	r7, r3
 8000ed2:	260a      	movs	r6, #10
 8000ed4:	fb91 f5f6 	sdiv	r5, r1, r6
 8000ed8:	fb06 1115 	mls	r1, r6, r5, r1
 8000edc:	3130      	adds	r1, #48	; 0x30
 8000ede:	2d09      	cmp	r5, #9
 8000ee0:	f803 1c01 	strb.w	r1, [r3, #-1]
 8000ee4:	f103 32ff 	add.w	r2, r3, #4294967295
 8000ee8:	4629      	mov	r1, r5
 8000eea:	dc09      	bgt.n	8000f00 <__exponent+0x4c>
 8000eec:	3130      	adds	r1, #48	; 0x30
 8000eee:	3b02      	subs	r3, #2
 8000ef0:	f802 1c01 	strb.w	r1, [r2, #-1]
 8000ef4:	42bb      	cmp	r3, r7
 8000ef6:	4622      	mov	r2, r4
 8000ef8:	d304      	bcc.n	8000f04 <__exponent+0x50>
 8000efa:	1a10      	subs	r0, r2, r0
 8000efc:	b003      	add	sp, #12
 8000efe:	bdf0      	pop	{r4, r5, r6, r7, pc}
 8000f00:	4613      	mov	r3, r2
 8000f02:	e7e7      	b.n	8000ed4 <__exponent+0x20>
 8000f04:	f813 2b01 	ldrb.w	r2, [r3], #1
 8000f08:	f804 2b01 	strb.w	r2, [r4], #1
 8000f0c:	e7f2      	b.n	8000ef4 <__exponent+0x40>
 8000f0e:	2330      	movs	r3, #48	; 0x30
 8000f10:	4419      	add	r1, r3
 8000f12:	7083      	strb	r3, [r0, #2]
 8000f14:	1d02      	adds	r2, r0, #4
 8000f16:	70c1      	strb	r1, [r0, #3]
 8000f18:	e7ef      	b.n	8000efa <__exponent+0x46>
	...

08000f1c <_printf_float>:
 8000f1c:	e92d 4ff0 	stmdb	sp!, {r4, r5, r6, r7, r8, r9, sl, fp, lr}
 8000f20:	b091      	sub	sp, #68	; 0x44
 8000f22:	460c      	mov	r4, r1
 8000f24:	9f1a      	ldr	r7, [sp, #104]	; 0x68
 8000f26:	4693      	mov	fp, r2
 8000f28:	461e      	mov	r6, r3
 8000f2a:	4605      	mov	r5, r0
 8000f2c:	f002 fdea 	bl	8003b04 <_localeconv_r>
 8000f30:	6803      	ldr	r3, [r0, #0]
 8000f32:	9309      	str	r3, [sp, #36]	; 0x24
 8000f34:	4618      	mov	r0, r3
 8000f36:	f7ff f96b 	bl	8000210 <strlen>
 8000f3a:	2300      	movs	r3, #0
 8000f3c:	930e      	str	r3, [sp, #56]	; 0x38
 8000f3e:	683b      	ldr	r3, [r7, #0]
 8000f40:	900a      	str	r0, [sp, #40]	; 0x28
 8000f42:	3307      	adds	r3, #7
 8000f44:	f023 0307 	bic.w	r3, r3, #7
 8000f48:	f103 0208 	add.w	r2, r3, #8
 8000f4c:	f894 8018 	ldrb.w	r8, [r4, #24]
 8000f50:	f8d4 a000 	ldr.w	sl, [r4]
 8000f54:	603a      	str	r2, [r7, #0]
 8000f56:	e9d3 2300 	ldrd	r2, r3, [r3]
 8000f5a:	e9c4 2312 	strd	r2, r3, [r4, #72]	; 0x48
 8000f5e:	e9d4 7912 	ldrd	r7, r9, [r4, #72]	; 0x48
 8000f62:	f029 4300 	bic.w	r3, r9, #2147483648	; 0x80000000
 8000f66:	930b      	str	r3, [sp, #44]	; 0x2c
 8000f68:	f04f 32ff 	mov.w	r2, #4294967295
 8000f6c:	4ba6      	ldr	r3, [pc, #664]	; (8001208 <_printf_float+0x2ec>)
 8000f6e:	990b      	ldr	r1, [sp, #44]	; 0x2c
 8000f70:	4638      	mov	r0, r7
 8000f72:	f7ff fdfb 	bl	8000b6c <__aeabi_dcmpun>
 8000f76:	bb68      	cbnz	r0, 8000fd4 <_printf_float+0xb8>
 8000f78:	f04f 32ff 	mov.w	r2, #4294967295
 8000f7c:	4ba2      	ldr	r3, [pc, #648]	; (8001208 <_printf_float+0x2ec>)
 8000f7e:	990b      	ldr	r1, [sp, #44]	; 0x2c
 8000f80:	4638      	mov	r0, r7
 8000f82:	f7ff fdd5 	bl	8000b30 <__aeabi_dcmple>
 8000f86:	bb28      	cbnz	r0, 8000fd4 <_printf_float+0xb8>
 8000f88:	2200      	movs	r2, #0
 8000f8a:	2300      	movs	r3, #0
 8000f8c:	4638      	mov	r0, r7
 8000f8e:	4649      	mov	r1, r9
 8000f90:	f7ff fdc4 	bl	8000b1c <__aeabi_dcmplt>
 8000f94:	b110      	cbz	r0, 8000f9c <_printf_float+0x80>
 8000f96:	232d      	movs	r3, #45	; 0x2d
 8000f98:	f884 3043 	strb.w	r3, [r4, #67]	; 0x43
 8000f9c:	4f9b      	ldr	r7, [pc, #620]	; (800120c <_printf_float+0x2f0>)
 8000f9e:	4b9c      	ldr	r3, [pc, #624]	; (8001210 <_printf_float+0x2f4>)
 8000fa0:	f1b8 0f47 	cmp.w	r8, #71	; 0x47
 8000fa4:	bf98      	it	ls
 8000fa6:	461f      	movls	r7, r3
 8000fa8:	2303      	movs	r3, #3
 8000faa:	6123      	str	r3, [r4, #16]
 8000fac:	f02a 0304 	bic.w	r3, sl, #4
 8000fb0:	6023      	str	r3, [r4, #0]
 8000fb2:	f04f 0900 	mov.w	r9, #0
 8000fb6:	9600      	str	r6, [sp, #0]
 8000fb8:	465b      	mov	r3, fp
 8000fba:	aa0f      	add	r2, sp, #60	; 0x3c
 8000fbc:	4621      	mov	r1, r4
 8000fbe:	4628      	mov	r0, r5
 8000fc0:	f000 f9e2 	bl	8001388 <_printf_common>
 8000fc4:	3001      	adds	r0, #1
 8000fc6:	f040 8090 	bne.w	80010ea <_printf_float+0x1ce>
 8000fca:	f04f 30ff 	mov.w	r0, #4294967295
 8000fce:	b011      	add	sp, #68	; 0x44
 8000fd0:	e8bd 8ff0 	ldmia.w	sp!, {r4, r5, r6, r7, r8, r9, sl, fp, pc}
 8000fd4:	463a      	mov	r2, r7
 8000fd6:	464b      	mov	r3, r9
 8000fd8:	4638      	mov	r0, r7
 8000fda:	4649      	mov	r1, r9
 8000fdc:	f7ff fdc6 	bl	8000b6c <__aeabi_dcmpun>
 8000fe0:	b110      	cbz	r0, 8000fe8 <_printf_float+0xcc>
 8000fe2:	4f8c      	ldr	r7, [pc, #560]	; (8001214 <_printf_float+0x2f8>)
 8000fe4:	4b8c      	ldr	r3, [pc, #560]	; (8001218 <_printf_float+0x2fc>)
 8000fe6:	e7db      	b.n	8000fa0 <_printf_float+0x84>
 8000fe8:	6863      	ldr	r3, [r4, #4]
 8000fea:	1c59      	adds	r1, r3, #1
 8000fec:	f44a 6280 	orr.w	r2, sl, #1024	; 0x400
 8000ff0:	a90e      	add	r1, sp, #56	; 0x38
 8000ff2:	a80d      	add	r0, sp, #52	; 0x34
 8000ff4:	d140      	bne.n	8001078 <_printf_float+0x15c>
 8000ff6:	2306      	movs	r3, #6
 8000ff8:	6063      	str	r3, [r4, #4]
 8000ffa:	f10d 0333 	add.w	r3, sp, #51	; 0x33
 8000ffe:	e9cd 2301 	strd	r2, r3, [sp, #4]
 8001002:	f04f 0c00 	mov.w	ip, #0
 8001006:	6863      	ldr	r3, [r4, #4]
 8001008:	6022      	str	r2, [r4, #0]
 800100a:	e9cd 0803 	strd	r0, r8, [sp, #12]
 800100e:	9300      	str	r3, [sp, #0]
 8001010:	463a      	mov	r2, r7
 8001012:	464b      	mov	r3, r9
 8001014:	e9cd 1c05 	strd	r1, ip, [sp, #20]
 8001018:	4628      	mov	r0, r5
 800101a:	f7ff feef 	bl	8000dfc <__cvt>
 800101e:	f008 03df 	and.w	r3, r8, #223	; 0xdf
 8001022:	2b47      	cmp	r3, #71	; 0x47
 8001024:	4607      	mov	r7, r0
 8001026:	d109      	bne.n	800103c <_printf_float+0x120>
 8001028:	9b0d      	ldr	r3, [sp, #52]	; 0x34
 800102a:	1cd8      	adds	r0, r3, #3
 800102c:	db02      	blt.n	8001034 <_printf_float+0x118>
 800102e:	6862      	ldr	r2, [r4, #4]
 8001030:	4293      	cmp	r3, r2
 8001032:	dd47      	ble.n	80010c4 <_printf_float+0x1a8>
 8001034:	f1a8 0802 	sub.w	r8, r8, #2
 8001038:	fa5f f888 	uxtb.w	r8, r8
 800103c:	f1b8 0f65 	cmp.w	r8, #101	; 0x65
 8001040:	990d      	ldr	r1, [sp, #52]	; 0x34
 8001042:	d824      	bhi.n	800108e <_printf_float+0x172>
 8001044:	3901      	subs	r1, #1
 8001046:	4642      	mov	r2, r8
 8001048:	f104 0050 	add.w	r0, r4, #80	; 0x50
 800104c:	910d      	str	r1, [sp, #52]	; 0x34
 800104e:	f7ff ff31 	bl	8000eb4 <__exponent>
 8001052:	9a0e      	ldr	r2, [sp, #56]	; 0x38
 8001054:	1813      	adds	r3, r2, r0
 8001056:	2a01      	cmp	r2, #1
 8001058:	4681      	mov	r9, r0
 800105a:	6123      	str	r3, [r4, #16]
 800105c:	dc02      	bgt.n	8001064 <_printf_float+0x148>
 800105e:	6822      	ldr	r2, [r4, #0]
 8001060:	07d1      	lsls	r1, r2, #31
 8001062:	d501      	bpl.n	8001068 <_printf_float+0x14c>
 8001064:	3301      	adds	r3, #1
 8001066:	6123      	str	r3, [r4, #16]
 8001068:	f89d 3033 	ldrb.w	r3, [sp, #51]	; 0x33
 800106c:	2b00      	cmp	r3, #0
 800106e:	d0a2      	beq.n	8000fb6 <_printf_float+0x9a>
 8001070:	232d      	movs	r3, #45	; 0x2d
 8001072:	f884 3043 	strb.w	r3, [r4, #67]	; 0x43
 8001076:	e79e      	b.n	8000fb6 <_printf_float+0x9a>
 8001078:	f1b8 0f67 	cmp.w	r8, #103	; 0x67
 800107c:	f000 816e 	beq.w	800135c <_printf_float+0x440>
 8001080:	f1b8 0f47 	cmp.w	r8, #71	; 0x47
 8001084:	d1b9      	bne.n	8000ffa <_printf_float+0xde>
 8001086:	2b00      	cmp	r3, #0
 8001088:	d1b7      	bne.n	8000ffa <_printf_float+0xde>
 800108a:	2301      	movs	r3, #1
 800108c:	e7b4      	b.n	8000ff8 <_printf_float+0xdc>
 800108e:	f1b8 0f66 	cmp.w	r8, #102	; 0x66
 8001092:	d119      	bne.n	80010c8 <_printf_float+0x1ac>
 8001094:	2900      	cmp	r1, #0
 8001096:	6863      	ldr	r3, [r4, #4]
 8001098:	dd0c      	ble.n	80010b4 <_printf_float+0x198>
 800109a:	6121      	str	r1, [r4, #16]
 800109c:	b913      	cbnz	r3, 80010a4 <_printf_float+0x188>
 800109e:	6822      	ldr	r2, [r4, #0]
 80010a0:	07d2      	lsls	r2, r2, #31
 80010a2:	d502      	bpl.n	80010aa <_printf_float+0x18e>
 80010a4:	3301      	adds	r3, #1
 80010a6:	440b      	add	r3, r1
 80010a8:	6123      	str	r3, [r4, #16]
 80010aa:	9b0d      	ldr	r3, [sp, #52]	; 0x34
 80010ac:	65a3      	str	r3, [r4, #88]	; 0x58
 80010ae:	f04f 0900 	mov.w	r9, #0
 80010b2:	e7d9      	b.n	8001068 <_printf_float+0x14c>
 80010b4:	b913      	cbnz	r3, 80010bc <_printf_float+0x1a0>
 80010b6:	6822      	ldr	r2, [r4, #0]
 80010b8:	07d0      	lsls	r0, r2, #31
 80010ba:	d501      	bpl.n	80010c0 <_printf_float+0x1a4>
 80010bc:	3302      	adds	r3, #2
 80010be:	e7f3      	b.n	80010a8 <_printf_float+0x18c>
 80010c0:	2301      	movs	r3, #1
 80010c2:	e7f1      	b.n	80010a8 <_printf_float+0x18c>
 80010c4:	f04f 0867 	mov.w	r8, #103	; 0x67
 80010c8:	e9dd 320d 	ldrd	r3, r2, [sp, #52]	; 0x34
 80010cc:	4293      	cmp	r3, r2
 80010ce:	db05      	blt.n	80010dc <_printf_float+0x1c0>
 80010d0:	6822      	ldr	r2, [r4, #0]
 80010d2:	6123      	str	r3, [r4, #16]
 80010d4:	07d1      	lsls	r1, r2, #31
 80010d6:	d5e8      	bpl.n	80010aa <_printf_float+0x18e>
 80010d8:	3301      	adds	r3, #1
 80010da:	e7e5      	b.n	80010a8 <_printf_float+0x18c>
 80010dc:	2b00      	cmp	r3, #0
 80010de:	bfd4      	ite	le
 80010e0:	f1c3 0302 	rsble	r3, r3, #2
 80010e4:	2301      	movgt	r3, #1
 80010e6:	4413      	add	r3, r2
 80010e8:	e7de      	b.n	80010a8 <_printf_float+0x18c>
 80010ea:	6823      	ldr	r3, [r4, #0]
 80010ec:	055a      	lsls	r2, r3, #21
 80010ee:	d407      	bmi.n	8001100 <_printf_float+0x1e4>
 80010f0:	6923      	ldr	r3, [r4, #16]
 80010f2:	463a      	mov	r2, r7
 80010f4:	4659      	mov	r1, fp
 80010f6:	4628      	mov	r0, r5
 80010f8:	47b0      	blx	r6
 80010fa:	3001      	adds	r0, #1
 80010fc:	d129      	bne.n	8001152 <_printf_float+0x236>
 80010fe:	e764      	b.n	8000fca <_printf_float+0xae>
 8001100:	f1b8 0f65 	cmp.w	r8, #101	; 0x65
 8001104:	f240 80d7 	bls.w	80012b6 <_printf_float+0x39a>
 8001108:	2200      	movs	r2, #0
 800110a:	2300      	movs	r3, #0
 800110c:	e9d4 0112 	ldrd	r0, r1, [r4, #72]	; 0x48
 8001110:	f7ff fcfa 	bl	8000b08 <__aeabi_dcmpeq>
 8001114:	b388      	cbz	r0, 800117a <_printf_float+0x25e>
 8001116:	2301      	movs	r3, #1
 8001118:	4a40      	ldr	r2, [pc, #256]	; (800121c <_printf_float+0x300>)
 800111a:	4659      	mov	r1, fp
 800111c:	4628      	mov	r0, r5
 800111e:	47b0      	blx	r6
 8001120:	3001      	adds	r0, #1
 8001122:	f43f af52 	beq.w	8000fca <_printf_float+0xae>
 8001126:	e9dd 230d 	ldrd	r2, r3, [sp, #52]	; 0x34
 800112a:	429a      	cmp	r2, r3
 800112c:	db02      	blt.n	8001134 <_printf_float+0x218>
 800112e:	6823      	ldr	r3, [r4, #0]
 8001130:	07d8      	lsls	r0, r3, #31
 8001132:	d50e      	bpl.n	8001152 <_printf_float+0x236>
 8001134:	e9dd 2309 	ldrd	r2, r3, [sp, #36]	; 0x24
 8001138:	4659      	mov	r1, fp
 800113a:	4628      	mov	r0, r5
 800113c:	47b0      	blx	r6
 800113e:	3001      	adds	r0, #1
 8001140:	f43f af43 	beq.w	8000fca <_printf_float+0xae>
 8001144:	2700      	movs	r7, #0
 8001146:	f104 081a 	add.w	r8, r4, #26
 800114a:	9b0e      	ldr	r3, [sp, #56]	; 0x38
 800114c:	3b01      	subs	r3, #1
 800114e:	42bb      	cmp	r3, r7
 8001150:	dc09      	bgt.n	8001166 <_printf_float+0x24a>
 8001152:	6823      	ldr	r3, [r4, #0]
 8001154:	079f      	lsls	r7, r3, #30
 8001156:	f100 80fd 	bmi.w	8001354 <_printf_float+0x438>
 800115a:	68e0      	ldr	r0, [r4, #12]
 800115c:	9b0f      	ldr	r3, [sp, #60]	; 0x3c
 800115e:	4298      	cmp	r0, r3
 8001160:	bfb8      	it	lt
 8001162:	4618      	movlt	r0, r3
 8001164:	e733      	b.n	8000fce <_printf_float+0xb2>
 8001166:	2301      	movs	r3, #1
 8001168:	4642      	mov	r2, r8
 800116a:	4659      	mov	r1, fp
 800116c:	4628      	mov	r0, r5
 800116e:	47b0      	blx	r6
 8001170:	3001      	adds	r0, #1
 8001172:	f43f af2a 	beq.w	8000fca <_printf_float+0xae>
 8001176:	3701      	adds	r7, #1
 8001178:	e7e7      	b.n	800114a <_printf_float+0x22e>
 800117a:	9b0d      	ldr	r3, [sp, #52]	; 0x34
 800117c:	2b00      	cmp	r3, #0
 800117e:	dc2b      	bgt.n	80011d8 <_printf_float+0x2bc>
 8001180:	2301      	movs	r3, #1
 8001182:	4a26      	ldr	r2, [pc, #152]	; (800121c <_printf_float+0x300>)
 8001184:	4659      	mov	r1, fp
 8001186:	4628      	mov	r0, r5
 8001188:	47b0      	blx	r6
 800118a:	3001      	adds	r0, #1
 800118c:	f43f af1d 	beq.w	8000fca <_printf_float+0xae>
 8001190:	9b0d      	ldr	r3, [sp, #52]	; 0x34
 8001192:	b923      	cbnz	r3, 800119e <_printf_float+0x282>
 8001194:	9b0e      	ldr	r3, [sp, #56]	; 0x38
 8001196:	b913      	cbnz	r3, 800119e <_printf_float+0x282>
 8001198:	6823      	ldr	r3, [r4, #0]
 800119a:	07d9      	lsls	r1, r3, #31
 800119c:	d5d9      	bpl.n	8001152 <_printf_float+0x236>
 800119e:	e9dd 2309 	ldrd	r2, r3, [sp, #36]	; 0x24
 80011a2:	4659      	mov	r1, fp
 80011a4:	4628      	mov	r0, r5
 80011a6:	47b0      	blx	r6
 80011a8:	3001      	adds	r0, #1
 80011aa:	f43f af0e 	beq.w	8000fca <_printf_float+0xae>
 80011ae:	f04f 0800 	mov.w	r8, #0
 80011b2:	f104 091a 	add.w	r9, r4, #26
 80011b6:	9b0d      	ldr	r3, [sp, #52]	; 0x34
 80011b8:	425b      	negs	r3, r3
 80011ba:	4543      	cmp	r3, r8
 80011bc:	dc01      	bgt.n	80011c2 <_printf_float+0x2a6>
 80011be:	9b0e      	ldr	r3, [sp, #56]	; 0x38
 80011c0:	e797      	b.n	80010f2 <_printf_float+0x1d6>
 80011c2:	2301      	movs	r3, #1
 80011c4:	464a      	mov	r2, r9
 80011c6:	4659      	mov	r1, fp
 80011c8:	4628      	mov	r0, r5
 80011ca:	47b0      	blx	r6
 80011cc:	3001      	adds	r0, #1
 80011ce:	f43f aefc 	beq.w	8000fca <_printf_float+0xae>
 80011d2:	f108 0801 	add.w	r8, r8, #1
 80011d6:	e7ee      	b.n	80011b6 <_printf_float+0x29a>
 80011d8:	9a0e      	ldr	r2, [sp, #56]	; 0x38
 80011da:	6da3      	ldr	r3, [r4, #88]	; 0x58
 80011dc:	429a      	cmp	r2, r3
 80011de:	bfa8      	it	ge
 80011e0:	461a      	movge	r2, r3
 80011e2:	2a00      	cmp	r2, #0
 80011e4:	4690      	mov	r8, r2
 80011e6:	dd07      	ble.n	80011f8 <_printf_float+0x2dc>
 80011e8:	4613      	mov	r3, r2
 80011ea:	4659      	mov	r1, fp
 80011ec:	463a      	mov	r2, r7
 80011ee:	4628      	mov	r0, r5
 80011f0:	47b0      	blx	r6
 80011f2:	3001      	adds	r0, #1
 80011f4:	f43f aee9 	beq.w	8000fca <_printf_float+0xae>
 80011f8:	f104 031a 	add.w	r3, r4, #26
 80011fc:	f04f 0a00 	mov.w	sl, #0
 8001200:	ea28 78e8 	bic.w	r8, r8, r8, asr #31
 8001204:	930b      	str	r3, [sp, #44]	; 0x2c
 8001206:	e015      	b.n	8001234 <_printf_float+0x318>
 8001208:	7fefffff 	.word	0x7fefffff
 800120c:	0800487c 	.word	0x0800487c
 8001210:	08004878 	.word	0x08004878
 8001214:	08004884 	.word	0x08004884
 8001218:	08004880 	.word	0x08004880
 800121c:	08004888 	.word	0x08004888
 8001220:	2301      	movs	r3, #1
 8001222:	9a0b      	ldr	r2, [sp, #44]	; 0x2c
 8001224:	4659      	mov	r1, fp
 8001226:	4628      	mov	r0, r5
 8001228:	47b0      	blx	r6
 800122a:	3001      	adds	r0, #1
 800122c:	f43f aecd 	beq.w	8000fca <_printf_float+0xae>
 8001230:	f10a 0a01 	add.w	sl, sl, #1
 8001234:	f8d4 9058 	ldr.w	r9, [r4, #88]	; 0x58
 8001238:	eba9 0308 	sub.w	r3, r9, r8
 800123c:	4553      	cmp	r3, sl
 800123e:	dcef      	bgt.n	8001220 <_printf_float+0x304>
 8001240:	e9dd 230d 	ldrd	r2, r3, [sp, #52]	; 0x34
 8001244:	429a      	cmp	r2, r3
 8001246:	444f      	add	r7, r9
 8001248:	db14      	blt.n	8001274 <_printf_float+0x358>
 800124a:	6823      	ldr	r3, [r4, #0]
 800124c:	07da      	lsls	r2, r3, #31
 800124e:	d411      	bmi.n	8001274 <_printf_float+0x358>
 8001250:	9b0e      	ldr	r3, [sp, #56]	; 0x38
 8001252:	990d      	ldr	r1, [sp, #52]	; 0x34
 8001254:	eba3 0209 	sub.w	r2, r3, r9
 8001258:	eba3 0901 	sub.w	r9, r3, r1
 800125c:	4591      	cmp	r9, r2
 800125e:	bfa8      	it	ge
 8001260:	4691      	movge	r9, r2
 8001262:	f1b9 0f00 	cmp.w	r9, #0
 8001266:	dc0d      	bgt.n	8001284 <_printf_float+0x368>
 8001268:	2700      	movs	r7, #0
 800126a:	ea29 79e9 	bic.w	r9, r9, r9, asr #31
 800126e:	f104 081a 	add.w	r8, r4, #26
 8001272:	e018      	b.n	80012a6 <_printf_float+0x38a>
 8001274:	e9dd 2309 	ldrd	r2, r3, [sp, #36]	; 0x24
 8001278:	4659      	mov	r1, fp
 800127a:	4628      	mov	r0, r5
 800127c:	47b0      	blx	r6
 800127e:	3001      	adds	r0, #1
 8001280:	d1e6      	bne.n	8001250 <_printf_float+0x334>
 8001282:	e6a2      	b.n	8000fca <_printf_float+0xae>
 8001284:	464b      	mov	r3, r9
 8001286:	463a      	mov	r2, r7
 8001288:	4659      	mov	r1, fp
 800128a:	4628      	mov	r0, r5
 800128c:	47b0      	blx	r6
 800128e:	3001      	adds	r0, #1
 8001290:	d1ea      	bne.n	8001268 <_printf_float+0x34c>
 8001292:	e69a      	b.n	8000fca <_printf_float+0xae>
 8001294:	2301      	movs	r3, #1
 8001296:	4642      	mov	r2, r8
 8001298:	4659      	mov	r1, fp
 800129a:	4628      	mov	r0, r5
 800129c:	47b0      	blx	r6
 800129e:	3001      	adds	r0, #1
 80012a0:	f43f ae93 	beq.w	8000fca <_printf_float+0xae>
 80012a4:	3701      	adds	r7, #1
 80012a6:	e9dd 230d 	ldrd	r2, r3, [sp, #52]	; 0x34
 80012aa:	1a9b      	subs	r3, r3, r2
 80012ac:	eba3 0309 	sub.w	r3, r3, r9
 80012b0:	42bb      	cmp	r3, r7
 80012b2:	dcef      	bgt.n	8001294 <_printf_float+0x378>
 80012b4:	e74d      	b.n	8001152 <_printf_float+0x236>
 80012b6:	9a0e      	ldr	r2, [sp, #56]	; 0x38
 80012b8:	2a01      	cmp	r2, #1
 80012ba:	dc01      	bgt.n	80012c0 <_printf_float+0x3a4>
 80012bc:	07db      	lsls	r3, r3, #31
 80012be:	d538      	bpl.n	8001332 <_printf_float+0x416>
 80012c0:	2301      	movs	r3, #1
 80012c2:	463a      	mov	r2, r7
 80012c4:	4659      	mov	r1, fp
 80012c6:	4628      	mov	r0, r5
 80012c8:	47b0      	blx	r6
 80012ca:	3001      	adds	r0, #1
 80012cc:	f43f ae7d 	beq.w	8000fca <_printf_float+0xae>
 80012d0:	e9dd 2309 	ldrd	r2, r3, [sp, #36]	; 0x24
 80012d4:	4659      	mov	r1, fp
 80012d6:	4628      	mov	r0, r5
 80012d8:	47b0      	blx	r6
 80012da:	3001      	adds	r0, #1
 80012dc:	f107 0701 	add.w	r7, r7, #1
 80012e0:	f43f ae73 	beq.w	8000fca <_printf_float+0xae>
 80012e4:	9b0e      	ldr	r3, [sp, #56]	; 0x38
 80012e6:	2200      	movs	r2, #0
 80012e8:	f103 38ff 	add.w	r8, r3, #4294967295
 80012ec:	e9d4 0112 	ldrd	r0, r1, [r4, #72]	; 0x48
 80012f0:	2300      	movs	r3, #0
 80012f2:	f7ff fc09 	bl	8000b08 <__aeabi_dcmpeq>
 80012f6:	b9c0      	cbnz	r0, 800132a <_printf_float+0x40e>
 80012f8:	4643      	mov	r3, r8
 80012fa:	463a      	mov	r2, r7
 80012fc:	4659      	mov	r1, fp
 80012fe:	4628      	mov	r0, r5
 8001300:	47b0      	blx	r6
 8001302:	3001      	adds	r0, #1
 8001304:	d10d      	bne.n	8001322 <_printf_float+0x406>
 8001306:	e660      	b.n	8000fca <_printf_float+0xae>
 8001308:	2301      	movs	r3, #1
 800130a:	4642      	mov	r2, r8
 800130c:	4659      	mov	r1, fp
 800130e:	4628      	mov	r0, r5
 8001310:	47b0      	blx	r6
 8001312:	3001      	adds	r0, #1
 8001314:	f43f ae59 	beq.w	8000fca <_printf_float+0xae>
 8001318:	3701      	adds	r7, #1
 800131a:	9b0e      	ldr	r3, [sp, #56]	; 0x38
 800131c:	3b01      	subs	r3, #1
 800131e:	42bb      	cmp	r3, r7
 8001320:	dcf2      	bgt.n	8001308 <_printf_float+0x3ec>
 8001322:	464b      	mov	r3, r9
 8001324:	f104 0250 	add.w	r2, r4, #80	; 0x50
 8001328:	e6e4      	b.n	80010f4 <_printf_float+0x1d8>
 800132a:	2700      	movs	r7, #0
 800132c:	f104 081a 	add.w	r8, r4, #26
 8001330:	e7f3      	b.n	800131a <_printf_float+0x3fe>
 8001332:	2301      	movs	r3, #1
 8001334:	e7e1      	b.n	80012fa <_printf_float+0x3de>
 8001336:	2301      	movs	r3, #1
 8001338:	4642      	mov	r2, r8
 800133a:	4659      	mov	r1, fp
 800133c:	4628      	mov	r0, r5
 800133e:	47b0      	blx	r6
 8001340:	3001      	adds	r0, #1
 8001342:	f43f ae42 	beq.w	8000fca <_printf_float+0xae>
 8001346:	3701      	adds	r7, #1
 8001348:	68e3      	ldr	r3, [r4, #12]
 800134a:	9a0f      	ldr	r2, [sp, #60]	; 0x3c
 800134c:	1a9b      	subs	r3, r3, r2
 800134e:	42bb      	cmp	r3, r7
 8001350:	dcf1      	bgt.n	8001336 <_printf_float+0x41a>
 8001352:	e702      	b.n	800115a <_printf_float+0x23e>
 8001354:	2700      	movs	r7, #0
 8001356:	f104 0819 	add.w	r8, r4, #25
 800135a:	e7f5      	b.n	8001348 <_printf_float+0x42c>
 800135c:	2b00      	cmp	r3, #0
 800135e:	f43f ae94 	beq.w	800108a <_printf_float+0x16e>
 8001362:	f04f 0c00 	mov.w	ip, #0
 8001366:	e9cd 1c05 	strd	r1, ip, [sp, #20]
 800136a:	f10d 0133 	add.w	r1, sp, #51	; 0x33
 800136e:	6022      	str	r2, [r4, #0]
 8001370:	e9cd 0803 	strd	r0, r8, [sp, #12]
 8001374:	e9cd 2101 	strd	r2, r1, [sp, #4]
 8001378:	9300      	str	r3, [sp, #0]
 800137a:	463a      	mov	r2, r7
 800137c:	464b      	mov	r3, r9
 800137e:	4628      	mov	r0, r5
 8001380:	f7ff fd3c 	bl	8000dfc <__cvt>
 8001384:	4607      	mov	r7, r0
 8001386:	e64f      	b.n	8001028 <_printf_float+0x10c>

08001388 <_printf_common>:
 8001388:	e92d 47f0 	stmdb	sp!, {r4, r5, r6, r7, r8, r9, sl, lr}
 800138c:	4691      	mov	r9, r2
 800138e:	461f      	mov	r7, r3
 8001390:	688a      	ldr	r2, [r1, #8]
 8001392:	690b      	ldr	r3, [r1, #16]
 8001394:	f8dd 8020 	ldr.w	r8, [sp, #32]
 8001398:	4293      	cmp	r3, r2
 800139a:	bfb8      	it	lt
 800139c:	4613      	movlt	r3, r2
 800139e:	f8c9 3000 	str.w	r3, [r9]
 80013a2:	f891 2043 	ldrb.w	r2, [r1, #67]	; 0x43
 80013a6:	4606      	mov	r6, r0
 80013a8:	460c      	mov	r4, r1
 80013aa:	b112      	cbz	r2, 80013b2 <_printf_common+0x2a>
 80013ac:	3301      	adds	r3, #1
 80013ae:	f8c9 3000 	str.w	r3, [r9]
 80013b2:	6823      	ldr	r3, [r4, #0]
 80013b4:	0699      	lsls	r1, r3, #26
 80013b6:	bf42      	ittt	mi
 80013b8:	f8d9 3000 	ldrmi.w	r3, [r9]
 80013bc:	3302      	addmi	r3, #2
 80013be:	f8c9 3000 	strmi.w	r3, [r9]
 80013c2:	6825      	ldr	r5, [r4, #0]
 80013c4:	f015 0506 	ands.w	r5, r5, #6
 80013c8:	d107      	bne.n	80013da <_printf_common+0x52>
 80013ca:	f104 0a19 	add.w	sl, r4, #25
 80013ce:	68e3      	ldr	r3, [r4, #12]
 80013d0:	f8d9 2000 	ldr.w	r2, [r9]
 80013d4:	1a9b      	subs	r3, r3, r2
 80013d6:	42ab      	cmp	r3, r5
 80013d8:	dc28      	bgt.n	800142c <_printf_common+0xa4>
 80013da:	f894 3043 	ldrb.w	r3, [r4, #67]	; 0x43
 80013de:	6822      	ldr	r2, [r4, #0]
 80013e0:	3300      	adds	r3, #0
 80013e2:	bf18      	it	ne
 80013e4:	2301      	movne	r3, #1
 80013e6:	0692      	lsls	r2, r2, #26
 80013e8:	d42d      	bmi.n	8001446 <_printf_common+0xbe>
 80013ea:	f104 0243 	add.w	r2, r4, #67	; 0x43
 80013ee:	4639      	mov	r1, r7
 80013f0:	4630      	mov	r0, r6
 80013f2:	47c0      	blx	r8
 80013f4:	3001      	adds	r0, #1
 80013f6:	d020      	beq.n	800143a <_printf_common+0xb2>
 80013f8:	6823      	ldr	r3, [r4, #0]
 80013fa:	68e5      	ldr	r5, [r4, #12]
 80013fc:	f8d9 2000 	ldr.w	r2, [r9]
 8001400:	f003 0306 	and.w	r3, r3, #6
 8001404:	2b04      	cmp	r3, #4
 8001406:	bf08      	it	eq
 8001408:	1aad      	subeq	r5, r5, r2
 800140a:	68a3      	ldr	r3, [r4, #8]
 800140c:	6922      	ldr	r2, [r4, #16]
 800140e:	bf0c      	ite	eq
 8001410:	ea25 75e5 	biceq.w	r5, r5, r5, asr #31
 8001414:	2500      	movne	r5, #0
 8001416:	4293      	cmp	r3, r2
 8001418:	bfc4      	itt	gt
 800141a:	1a9b      	subgt	r3, r3, r2
 800141c:	18ed      	addgt	r5, r5, r3
 800141e:	f04f 0900 	mov.w	r9, #0
 8001422:	341a      	adds	r4, #26
 8001424:	454d      	cmp	r5, r9
 8001426:	d11a      	bne.n	800145e <_printf_common+0xd6>
 8001428:	2000      	movs	r0, #0
 800142a:	e008      	b.n	800143e <_printf_common+0xb6>
 800142c:	2301      	movs	r3, #1
 800142e:	4652      	mov	r2, sl
 8001430:	4639      	mov	r1, r7
 8001432:	4630      	mov	r0, r6
 8001434:	47c0      	blx	r8
 8001436:	3001      	adds	r0, #1
 8001438:	d103      	bne.n	8001442 <_printf_common+0xba>
 800143a:	f04f 30ff 	mov.w	r0, #4294967295
 800143e:	e8bd 87f0 	ldmia.w	sp!, {r4, r5, r6, r7, r8, r9, sl, pc}
 8001442:	3501      	adds	r5, #1
 8001444:	e7c3      	b.n	80013ce <_printf_common+0x46>
 8001446:	18e1      	adds	r1, r4, r3
 8001448:	1c5a      	adds	r2, r3, #1
 800144a:	2030      	movs	r0, #48	; 0x30
 800144c:	f881 0043 	strb.w	r0, [r1, #67]	; 0x43
 8001450:	4422      	add	r2, r4
 8001452:	f894 1045 	ldrb.w	r1, [r4, #69]	; 0x45
 8001456:	f882 1043 	strb.w	r1, [r2, #67]	; 0x43
 800145a:	3302      	adds	r3, #2
 800145c:	e7c5      	b.n	80013ea <_printf_common+0x62>
 800145e:	2301      	movs	r3, #1
 8001460:	4622      	mov	r2, r4
 8001462:	4639      	mov	r1, r7
 8001464:	4630      	mov	r0, r6
 8001466:	47c0      	blx	r8
 8001468:	3001      	adds	r0, #1
 800146a:	d0e6      	beq.n	800143a <_printf_common+0xb2>
 800146c:	f109 0901 	add.w	r9, r9, #1
 8001470:	e7d8      	b.n	8001424 <_printf_common+0x9c>
	...

08001474 <_printf_i>:
 8001474:	e92d 43f0 	stmdb	sp!, {r4, r5, r6, r7, r8, r9, lr}
 8001478:	f101 0c43 	add.w	ip, r1, #67	; 0x43
 800147c:	460c      	mov	r4, r1
 800147e:	7e09      	ldrb	r1, [r1, #24]
 8001480:	b085      	sub	sp, #20
 8001482:	296e      	cmp	r1, #110	; 0x6e
 8001484:	4617      	mov	r7, r2
 8001486:	4606      	mov	r6, r0
 8001488:	4698      	mov	r8, r3
 800148a:	9a0c      	ldr	r2, [sp, #48]	; 0x30
 800148c:	f000 80b3 	beq.w	80015f6 <_printf_i+0x182>
 8001490:	d822      	bhi.n	80014d8 <_printf_i+0x64>
 8001492:	2963      	cmp	r1, #99	; 0x63
 8001494:	d036      	beq.n	8001504 <_printf_i+0x90>
 8001496:	d80a      	bhi.n	80014ae <_printf_i+0x3a>
 8001498:	2900      	cmp	r1, #0
 800149a:	f000 80b9 	beq.w	8001610 <_printf_i+0x19c>
 800149e:	2958      	cmp	r1, #88	; 0x58
 80014a0:	f000 8083 	beq.w	80015aa <_printf_i+0x136>
 80014a4:	f104 0542 	add.w	r5, r4, #66	; 0x42
 80014a8:	f884 1042 	strb.w	r1, [r4, #66]	; 0x42
 80014ac:	e032      	b.n	8001514 <_printf_i+0xa0>
 80014ae:	2964      	cmp	r1, #100	; 0x64
 80014b0:	d001      	beq.n	80014b6 <_printf_i+0x42>
 80014b2:	2969      	cmp	r1, #105	; 0x69
 80014b4:	d1f6      	bne.n	80014a4 <_printf_i+0x30>
 80014b6:	6820      	ldr	r0, [r4, #0]
 80014b8:	6813      	ldr	r3, [r2, #0]
 80014ba:	0605      	lsls	r5, r0, #24
 80014bc:	f103 0104 	add.w	r1, r3, #4
 80014c0:	d52a      	bpl.n	8001518 <_printf_i+0xa4>
 80014c2:	681b      	ldr	r3, [r3, #0]
 80014c4:	6011      	str	r1, [r2, #0]
 80014c6:	2b00      	cmp	r3, #0
 80014c8:	da03      	bge.n	80014d2 <_printf_i+0x5e>
 80014ca:	222d      	movs	r2, #45	; 0x2d
 80014cc:	425b      	negs	r3, r3
 80014ce:	f884 2043 	strb.w	r2, [r4, #67]	; 0x43
 80014d2:	486f      	ldr	r0, [pc, #444]	; (8001690 <_printf_i+0x21c>)
 80014d4:	220a      	movs	r2, #10
 80014d6:	e039      	b.n	800154c <_printf_i+0xd8>
 80014d8:	2973      	cmp	r1, #115	; 0x73
 80014da:	f000 809d 	beq.w	8001618 <_printf_i+0x1a4>
 80014de:	d808      	bhi.n	80014f2 <_printf_i+0x7e>
 80014e0:	296f      	cmp	r1, #111	; 0x6f
 80014e2:	d020      	beq.n	8001526 <_printf_i+0xb2>
 80014e4:	2970      	cmp	r1, #112	; 0x70
 80014e6:	d1dd      	bne.n	80014a4 <_printf_i+0x30>
 80014e8:	6823      	ldr	r3, [r4, #0]
 80014ea:	f043 0320 	orr.w	r3, r3, #32
 80014ee:	6023      	str	r3, [r4, #0]
 80014f0:	e003      	b.n	80014fa <_printf_i+0x86>
 80014f2:	2975      	cmp	r1, #117	; 0x75
 80014f4:	d017      	beq.n	8001526 <_printf_i+0xb2>
 80014f6:	2978      	cmp	r1, #120	; 0x78
 80014f8:	d1d4      	bne.n	80014a4 <_printf_i+0x30>
 80014fa:	2378      	movs	r3, #120	; 0x78
 80014fc:	f884 3045 	strb.w	r3, [r4, #69]	; 0x45
 8001500:	4864      	ldr	r0, [pc, #400]	; (8001694 <_printf_i+0x220>)
 8001502:	e055      	b.n	80015b0 <_printf_i+0x13c>
 8001504:	6813      	ldr	r3, [r2, #0]
 8001506:	1d19      	adds	r1, r3, #4
 8001508:	681b      	ldr	r3, [r3, #0]
 800150a:	6011      	str	r1, [r2, #0]
 800150c:	f104 0542 	add.w	r5, r4, #66	; 0x42
 8001510:	f884 3042 	strb.w	r3, [r4, #66]	; 0x42
 8001514:	2301      	movs	r3, #1
 8001516:	e08c      	b.n	8001632 <_printf_i+0x1be>
 8001518:	681b      	ldr	r3, [r3, #0]
 800151a:	6011      	str	r1, [r2, #0]
 800151c:	f010 0f40 	tst.w	r0, #64	; 0x40
 8001520:	bf18      	it	ne
 8001522:	b21b      	sxthne	r3, r3
 8001524:	e7cf      	b.n	80014c6 <_printf_i+0x52>
 8001526:	6813      	ldr	r3, [r2, #0]
 8001528:	6825      	ldr	r5, [r4, #0]
 800152a:	1d18      	adds	r0, r3, #4
 800152c:	6010      	str	r0, [r2, #0]
 800152e:	0628      	lsls	r0, r5, #24
 8001530:	d501      	bpl.n	8001536 <_printf_i+0xc2>
 8001532:	681b      	ldr	r3, [r3, #0]
 8001534:	e002      	b.n	800153c <_printf_i+0xc8>
 8001536:	0668      	lsls	r0, r5, #25
 8001538:	d5fb      	bpl.n	8001532 <_printf_i+0xbe>
 800153a:	881b      	ldrh	r3, [r3, #0]
 800153c:	4854      	ldr	r0, [pc, #336]	; (8001690 <_printf_i+0x21c>)
 800153e:	296f      	cmp	r1, #111	; 0x6f
 8001540:	bf14      	ite	ne
 8001542:	220a      	movne	r2, #10
 8001544:	2208      	moveq	r2, #8
 8001546:	2100      	movs	r1, #0
 8001548:	f884 1043 	strb.w	r1, [r4, #67]	; 0x43
 800154c:	6865      	ldr	r5, [r4, #4]
 800154e:	60a5      	str	r5, [r4, #8]
 8001550:	2d00      	cmp	r5, #0
 8001552:	f2c0 8095 	blt.w	8001680 <_printf_i+0x20c>
 8001556:	6821      	ldr	r1, [r4, #0]
 8001558:	f021 0104 	bic.w	r1, r1, #4
 800155c:	6021      	str	r1, [r4, #0]
 800155e:	2b00      	cmp	r3, #0
 8001560:	d13d      	bne.n	80015de <_printf_i+0x16a>
 8001562:	2d00      	cmp	r5, #0
 8001564:	f040 808e 	bne.w	8001684 <_printf_i+0x210>
 8001568:	4665      	mov	r5, ip
 800156a:	2a08      	cmp	r2, #8
 800156c:	d10b      	bne.n	8001586 <_printf_i+0x112>
 800156e:	6823      	ldr	r3, [r4, #0]
 8001570:	07db      	lsls	r3, r3, #31
 8001572:	d508      	bpl.n	8001586 <_printf_i+0x112>
 8001574:	6923      	ldr	r3, [r4, #16]
 8001576:	6862      	ldr	r2, [r4, #4]
 8001578:	429a      	cmp	r2, r3
 800157a:	bfde      	ittt	le
 800157c:	2330      	movle	r3, #48	; 0x30
 800157e:	f805 3c01 	strble.w	r3, [r5, #-1]
 8001582:	f105 35ff 	addle.w	r5, r5, #4294967295
 8001586:	ebac 0305 	sub.w	r3, ip, r5
 800158a:	6123      	str	r3, [r4, #16]
 800158c:	f8cd 8000 	str.w	r8, [sp]
 8001590:	463b      	mov	r3, r7
 8001592:	aa03      	add	r2, sp, #12
 8001594:	4621      	mov	r1, r4
 8001596:	4630      	mov	r0, r6
 8001598:	f7ff fef6 	bl	8001388 <_printf_common>
 800159c:	3001      	adds	r0, #1
 800159e:	d14d      	bne.n	800163c <_printf_i+0x1c8>
 80015a0:	f04f 30ff 	mov.w	r0, #4294967295
 80015a4:	b005      	add	sp, #20
 80015a6:	e8bd 83f0 	ldmia.w	sp!, {r4, r5, r6, r7, r8, r9, pc}
 80015aa:	4839      	ldr	r0, [pc, #228]	; (8001690 <_printf_i+0x21c>)
 80015ac:	f884 1045 	strb.w	r1, [r4, #69]	; 0x45
 80015b0:	6813      	ldr	r3, [r2, #0]
 80015b2:	6821      	ldr	r1, [r4, #0]
 80015b4:	1d1d      	adds	r5, r3, #4
 80015b6:	681b      	ldr	r3, [r3, #0]
 80015b8:	6015      	str	r5, [r2, #0]
 80015ba:	060a      	lsls	r2, r1, #24
 80015bc:	d50b      	bpl.n	80015d6 <_printf_i+0x162>
 80015be:	07ca      	lsls	r2, r1, #31
 80015c0:	bf44      	itt	mi
 80015c2:	f041 0120 	orrmi.w	r1, r1, #32
 80015c6:	6021      	strmi	r1, [r4, #0]
 80015c8:	b91b      	cbnz	r3, 80015d2 <_printf_i+0x15e>
 80015ca:	6822      	ldr	r2, [r4, #0]
 80015cc:	f022 0220 	bic.w	r2, r2, #32
 80015d0:	6022      	str	r2, [r4, #0]
 80015d2:	2210      	movs	r2, #16
 80015d4:	e7b7      	b.n	8001546 <_printf_i+0xd2>
 80015d6:	064d      	lsls	r5, r1, #25
 80015d8:	bf48      	it	mi
 80015da:	b29b      	uxthmi	r3, r3
 80015dc:	e7ef      	b.n	80015be <_printf_i+0x14a>
 80015de:	4665      	mov	r5, ip
 80015e0:	fbb3 f1f2 	udiv	r1, r3, r2
 80015e4:	fb02 3311 	mls	r3, r2, r1, r3
 80015e8:	5cc3      	ldrb	r3, [r0, r3]
 80015ea:	f805 3d01 	strb.w	r3, [r5, #-1]!
 80015ee:	460b      	mov	r3, r1
 80015f0:	2900      	cmp	r1, #0
 80015f2:	d1f5      	bne.n	80015e0 <_printf_i+0x16c>
 80015f4:	e7b9      	b.n	800156a <_printf_i+0xf6>
 80015f6:	6813      	ldr	r3, [r2, #0]
 80015f8:	6825      	ldr	r5, [r4, #0]
 80015fa:	6961      	ldr	r1, [r4, #20]
 80015fc:	1d18      	adds	r0, r3, #4
 80015fe:	6010      	str	r0, [r2, #0]
 8001600:	0628      	lsls	r0, r5, #24
 8001602:	681b      	ldr	r3, [r3, #0]
 8001604:	d501      	bpl.n	800160a <_printf_i+0x196>
 8001606:	6019      	str	r1, [r3, #0]
 8001608:	e002      	b.n	8001610 <_printf_i+0x19c>
 800160a:	066a      	lsls	r2, r5, #25
 800160c:	d5fb      	bpl.n	8001606 <_printf_i+0x192>
 800160e:	8019      	strh	r1, [r3, #0]
 8001610:	2300      	movs	r3, #0
 8001612:	6123      	str	r3, [r4, #16]
 8001614:	4665      	mov	r5, ip
 8001616:	e7b9      	b.n	800158c <_printf_i+0x118>
 8001618:	6813      	ldr	r3, [r2, #0]
 800161a:	1d19      	adds	r1, r3, #4
 800161c:	6011      	str	r1, [r2, #0]
 800161e:	681d      	ldr	r5, [r3, #0]
 8001620:	6862      	ldr	r2, [r4, #4]
 8001622:	2100      	movs	r1, #0
 8001624:	4628      	mov	r0, r5
 8001626:	f7fe fdfb 	bl	8000220 <memchr>
 800162a:	b108      	cbz	r0, 8001630 <_printf_i+0x1bc>
 800162c:	1b40      	subs	r0, r0, r5
 800162e:	6060      	str	r0, [r4, #4]
 8001630:	6863      	ldr	r3, [r4, #4]
 8001632:	6123      	str	r3, [r4, #16]
 8001634:	2300      	movs	r3, #0
 8001636:	f884 3043 	strb.w	r3, [r4, #67]	; 0x43
 800163a:	e7a7      	b.n	800158c <_printf_i+0x118>
 800163c:	6923      	ldr	r3, [r4, #16]
 800163e:	462a      	mov	r2, r5
 8001640:	4639      	mov	r1, r7
 8001642:	4630      	mov	r0, r6
 8001644:	47c0      	blx	r8
 8001646:	3001      	adds	r0, #1
 8001648:	d0aa      	beq.n	80015a0 <_printf_i+0x12c>
 800164a:	6823      	ldr	r3, [r4, #0]
 800164c:	079b      	lsls	r3, r3, #30
 800164e:	d413      	bmi.n	8001678 <_printf_i+0x204>
 8001650:	68e0      	ldr	r0, [r4, #12]
 8001652:	9b03      	ldr	r3, [sp, #12]
 8001654:	4298      	cmp	r0, r3
 8001656:	bfb8      	it	lt
 8001658:	4618      	movlt	r0, r3
 800165a:	e7a3      	b.n	80015a4 <_printf_i+0x130>
 800165c:	2301      	movs	r3, #1
 800165e:	464a      	mov	r2, r9
 8001660:	4639      	mov	r1, r7
 8001662:	4630      	mov	r0, r6
 8001664:	47c0      	blx	r8
 8001666:	3001      	adds	r0, #1
 8001668:	d09a      	beq.n	80015a0 <_printf_i+0x12c>
 800166a:	3501      	adds	r5, #1
 800166c:	68e3      	ldr	r3, [r4, #12]
 800166e:	9a03      	ldr	r2, [sp, #12]
 8001670:	1a9b      	subs	r3, r3, r2
 8001672:	42ab      	cmp	r3, r5
 8001674:	dcf2      	bgt.n	800165c <_printf_i+0x1e8>
 8001676:	e7eb      	b.n	8001650 <_printf_i+0x1dc>
 8001678:	2500      	movs	r5, #0
 800167a:	f104 0919 	add.w	r9, r4, #25
 800167e:	e7f5      	b.n	800166c <_printf_i+0x1f8>
 8001680:	2b00      	cmp	r3, #0
 8001682:	d1ac      	bne.n	80015de <_printf_i+0x16a>
 8001684:	7803      	ldrb	r3, [r0, #0]
 8001686:	f884 3042 	strb.w	r3, [r4, #66]	; 0x42
 800168a:	f104 0542 	add.w	r5, r4, #66	; 0x42
 800168e:	e76c      	b.n	800156a <_printf_i+0xf6>
 8001690:	0800488a 	.word	0x0800488a
 8001694:	0800489b 	.word	0x0800489b

08001698 <_scanf_float>:
 8001698:	e92d 4ff0 	stmdb	sp!, {r4, r5, r6, r7, r8, r9, sl, fp, lr}
 800169c:	469a      	mov	sl, r3
 800169e:	688b      	ldr	r3, [r1, #8]
 80016a0:	4616      	mov	r6, r2
 80016a2:	1e5a      	subs	r2, r3, #1
 80016a4:	f5b2 7fae 	cmp.w	r2, #348	; 0x15c
 80016a8:	b087      	sub	sp, #28
 80016aa:	bf83      	ittte	hi
 80016ac:	f46f 72ae 	mvnhi.w	r2, #348	; 0x15c
 80016b0:	189b      	addhi	r3, r3, r2
 80016b2:	9301      	strhi	r3, [sp, #4]
 80016b4:	2300      	movls	r3, #0
 80016b6:	bf86      	itte	hi
 80016b8:	f240 135d 	movwhi	r3, #349	; 0x15d
 80016bc:	608b      	strhi	r3, [r1, #8]
 80016be:	9301      	strls	r3, [sp, #4]
 80016c0:	680b      	ldr	r3, [r1, #0]
 80016c2:	4688      	mov	r8, r1
 80016c4:	f04f 0b00 	mov.w	fp, #0
 80016c8:	f443 63f0 	orr.w	r3, r3, #1920	; 0x780
 80016cc:	f848 3b1c 	str.w	r3, [r8], #28
 80016d0:	e9cd bb03 	strd	fp, fp, [sp, #12]
 80016d4:	4607      	mov	r7, r0
 80016d6:	460c      	mov	r4, r1
 80016d8:	4645      	mov	r5, r8
 80016da:	465a      	mov	r2, fp
 80016dc:	46d9      	mov	r9, fp
 80016de:	f8cd b008 	str.w	fp, [sp, #8]
 80016e2:	68a1      	ldr	r1, [r4, #8]
 80016e4:	b181      	cbz	r1, 8001708 <_scanf_float+0x70>
 80016e6:	6833      	ldr	r3, [r6, #0]
 80016e8:	781b      	ldrb	r3, [r3, #0]
 80016ea:	2b49      	cmp	r3, #73	; 0x49
 80016ec:	d071      	beq.n	80017d2 <_scanf_float+0x13a>
 80016ee:	d84d      	bhi.n	800178c <_scanf_float+0xf4>
 80016f0:	2b39      	cmp	r3, #57	; 0x39
 80016f2:	d840      	bhi.n	8001776 <_scanf_float+0xde>
 80016f4:	2b31      	cmp	r3, #49	; 0x31
 80016f6:	f080 8088 	bcs.w	800180a <_scanf_float+0x172>
 80016fa:	2b2d      	cmp	r3, #45	; 0x2d
 80016fc:	f000 8090 	beq.w	8001820 <_scanf_float+0x188>
 8001700:	d815      	bhi.n	800172e <_scanf_float+0x96>
 8001702:	2b2b      	cmp	r3, #43	; 0x2b
 8001704:	f000 808c 	beq.w	8001820 <_scanf_float+0x188>
 8001708:	f1b9 0f00 	cmp.w	r9, #0
 800170c:	d003      	beq.n	8001716 <_scanf_float+0x7e>
 800170e:	6823      	ldr	r3, [r4, #0]
 8001710:	f423 7380 	bic.w	r3, r3, #256	; 0x100
 8001714:	6023      	str	r3, [r4, #0]
 8001716:	3a01      	subs	r2, #1
 8001718:	2a01      	cmp	r2, #1
 800171a:	f200 80ea 	bhi.w	80018f2 <_scanf_float+0x25a>
 800171e:	4545      	cmp	r5, r8
 8001720:	f200 80dc 	bhi.w	80018dc <_scanf_float+0x244>
 8001724:	2601      	movs	r6, #1
 8001726:	4630      	mov	r0, r6
 8001728:	b007      	add	sp, #28
 800172a:	e8bd 8ff0 	ldmia.w	sp!, {r4, r5, r6, r7, r8, r9, sl, fp, pc}
 800172e:	2b2e      	cmp	r3, #46	; 0x2e
 8001730:	f000 809f 	beq.w	8001872 <_scanf_float+0x1da>
 8001734:	2b30      	cmp	r3, #48	; 0x30
 8001736:	d1e7      	bne.n	8001708 <_scanf_float+0x70>
 8001738:	6820      	ldr	r0, [r4, #0]
 800173a:	f410 7f80 	tst.w	r0, #256	; 0x100
 800173e:	d064      	beq.n	800180a <_scanf_float+0x172>
 8001740:	9b01      	ldr	r3, [sp, #4]
 8001742:	f020 0080 	bic.w	r0, r0, #128	; 0x80
 8001746:	6020      	str	r0, [r4, #0]
 8001748:	f109 0901 	add.w	r9, r9, #1
 800174c:	b11b      	cbz	r3, 8001756 <_scanf_float+0xbe>
 800174e:	3b01      	subs	r3, #1
 8001750:	3101      	adds	r1, #1
 8001752:	9301      	str	r3, [sp, #4]
 8001754:	60a1      	str	r1, [r4, #8]
 8001756:	68a3      	ldr	r3, [r4, #8]
 8001758:	3b01      	subs	r3, #1
 800175a:	60a3      	str	r3, [r4, #8]
 800175c:	6923      	ldr	r3, [r4, #16]
 800175e:	3301      	adds	r3, #1
 8001760:	6123      	str	r3, [r4, #16]
 8001762:	6873      	ldr	r3, [r6, #4]
 8001764:	3b01      	subs	r3, #1
 8001766:	2b00      	cmp	r3, #0
 8001768:	6073      	str	r3, [r6, #4]
 800176a:	f340 80ac 	ble.w	80018c6 <_scanf_float+0x22e>
 800176e:	6833      	ldr	r3, [r6, #0]
 8001770:	3301      	adds	r3, #1
 8001772:	6033      	str	r3, [r6, #0]
 8001774:	e7b5      	b.n	80016e2 <_scanf_float+0x4a>
 8001776:	2b45      	cmp	r3, #69	; 0x45
 8001778:	f000 8085 	beq.w	8001886 <_scanf_float+0x1ee>
 800177c:	2b46      	cmp	r3, #70	; 0x46
 800177e:	d06a      	beq.n	8001856 <_scanf_float+0x1be>
 8001780:	2b41      	cmp	r3, #65	; 0x41
 8001782:	d1c1      	bne.n	8001708 <_scanf_float+0x70>
 8001784:	2a01      	cmp	r2, #1
 8001786:	d1bf      	bne.n	8001708 <_scanf_float+0x70>
 8001788:	2202      	movs	r2, #2
 800178a:	e046      	b.n	800181a <_scanf_float+0x182>
 800178c:	2b65      	cmp	r3, #101	; 0x65
 800178e:	d07a      	beq.n	8001886 <_scanf_float+0x1ee>
 8001790:	d818      	bhi.n	80017c4 <_scanf_float+0x12c>
 8001792:	2b54      	cmp	r3, #84	; 0x54
 8001794:	d066      	beq.n	8001864 <_scanf_float+0x1cc>
 8001796:	d811      	bhi.n	80017bc <_scanf_float+0x124>
 8001798:	2b4e      	cmp	r3, #78	; 0x4e
 800179a:	d1b5      	bne.n	8001708 <_scanf_float+0x70>
 800179c:	2a00      	cmp	r2, #0
 800179e:	d146      	bne.n	800182e <_scanf_float+0x196>
 80017a0:	f1b9 0f00 	cmp.w	r9, #0
 80017a4:	d145      	bne.n	8001832 <_scanf_float+0x19a>
 80017a6:	6821      	ldr	r1, [r4, #0]
 80017a8:	f401 60e0 	and.w	r0, r1, #1792	; 0x700
 80017ac:	f5b0 6fe0 	cmp.w	r0, #1792	; 0x700
 80017b0:	d13f      	bne.n	8001832 <_scanf_float+0x19a>
 80017b2:	f421 61f0 	bic.w	r1, r1, #1920	; 0x780
 80017b6:	6021      	str	r1, [r4, #0]
 80017b8:	2201      	movs	r2, #1
 80017ba:	e02e      	b.n	800181a <_scanf_float+0x182>
 80017bc:	2b59      	cmp	r3, #89	; 0x59
 80017be:	d01e      	beq.n	80017fe <_scanf_float+0x166>
 80017c0:	2b61      	cmp	r3, #97	; 0x61
 80017c2:	e7de      	b.n	8001782 <_scanf_float+0xea>
 80017c4:	2b6e      	cmp	r3, #110	; 0x6e
 80017c6:	d0e9      	beq.n	800179c <_scanf_float+0x104>
 80017c8:	d815      	bhi.n	80017f6 <_scanf_float+0x15e>
 80017ca:	2b66      	cmp	r3, #102	; 0x66
 80017cc:	d043      	beq.n	8001856 <_scanf_float+0x1be>
 80017ce:	2b69      	cmp	r3, #105	; 0x69
 80017d0:	d19a      	bne.n	8001708 <_scanf_float+0x70>
 80017d2:	f1bb 0f00 	cmp.w	fp, #0
 80017d6:	d138      	bne.n	800184a <_scanf_float+0x1b2>
 80017d8:	f1b9 0f00 	cmp.w	r9, #0
 80017dc:	d197      	bne.n	800170e <_scanf_float+0x76>
 80017de:	6821      	ldr	r1, [r4, #0]
 80017e0:	f401 60e0 	and.w	r0, r1, #1792	; 0x700
 80017e4:	f5b0 6fe0 	cmp.w	r0, #1792	; 0x700
 80017e8:	d195      	bne.n	8001716 <_scanf_float+0x7e>
 80017ea:	f421 61f0 	bic.w	r1, r1, #1920	; 0x780
 80017ee:	6021      	str	r1, [r4, #0]
 80017f0:	f04f 0b01 	mov.w	fp, #1
 80017f4:	e011      	b.n	800181a <_scanf_float+0x182>
 80017f6:	2b74      	cmp	r3, #116	; 0x74
 80017f8:	d034      	beq.n	8001864 <_scanf_float+0x1cc>
 80017fa:	2b79      	cmp	r3, #121	; 0x79
 80017fc:	d184      	bne.n	8001708 <_scanf_float+0x70>
 80017fe:	f1bb 0f07 	cmp.w	fp, #7
 8001802:	d181      	bne.n	8001708 <_scanf_float+0x70>
 8001804:	f04f 0b08 	mov.w	fp, #8
 8001808:	e007      	b.n	800181a <_scanf_float+0x182>
 800180a:	eb12 0f0b 	cmn.w	r2, fp
 800180e:	f47f af7b 	bne.w	8001708 <_scanf_float+0x70>
 8001812:	6821      	ldr	r1, [r4, #0]
 8001814:	f421 71c0 	bic.w	r1, r1, #384	; 0x180
 8001818:	6021      	str	r1, [r4, #0]
 800181a:	702b      	strb	r3, [r5, #0]
 800181c:	3501      	adds	r5, #1
 800181e:	e79a      	b.n	8001756 <_scanf_float+0xbe>
 8001820:	6821      	ldr	r1, [r4, #0]
 8001822:	0608      	lsls	r0, r1, #24
 8001824:	f57f af70 	bpl.w	8001708 <_scanf_float+0x70>
 8001828:	f021 0180 	bic.w	r1, r1, #128	; 0x80
 800182c:	e7f4      	b.n	8001818 <_scanf_float+0x180>
 800182e:	2a02      	cmp	r2, #2
 8001830:	d047      	beq.n	80018c2 <_scanf_float+0x22a>
 8001832:	f1bb 0f01 	cmp.w	fp, #1
 8001836:	d003      	beq.n	8001840 <_scanf_float+0x1a8>
 8001838:	f1bb 0f04 	cmp.w	fp, #4
 800183c:	f47f af64 	bne.w	8001708 <_scanf_float+0x70>
 8001840:	f10b 0b01 	add.w	fp, fp, #1
 8001844:	fa5f fb8b 	uxtb.w	fp, fp
 8001848:	e7e7      	b.n	800181a <_scanf_float+0x182>
 800184a:	f1bb 0f03 	cmp.w	fp, #3
 800184e:	d0f7      	beq.n	8001840 <_scanf_float+0x1a8>
 8001850:	f1bb 0f05 	cmp.w	fp, #5
 8001854:	e7f2      	b.n	800183c <_scanf_float+0x1a4>
 8001856:	f1bb 0f02 	cmp.w	fp, #2
 800185a:	f47f af55 	bne.w	8001708 <_scanf_float+0x70>
 800185e:	f04f 0b03 	mov.w	fp, #3
 8001862:	e7da      	b.n	800181a <_scanf_float+0x182>
 8001864:	f1bb 0f06 	cmp.w	fp, #6
 8001868:	f47f af4e 	bne.w	8001708 <_scanf_float+0x70>
 800186c:	f04f 0b07 	mov.w	fp, #7
 8001870:	e7d3      	b.n	800181a <_scanf_float+0x182>
 8001872:	6821      	ldr	r1, [r4, #0]
 8001874:	0588      	lsls	r0, r1, #22
 8001876:	f57f af47 	bpl.w	8001708 <_scanf_float+0x70>
 800187a:	f421 7120 	bic.w	r1, r1, #640	; 0x280
 800187e:	6021      	str	r1, [r4, #0]
 8001880:	f8cd 9008 	str.w	r9, [sp, #8]
 8001884:	e7c9      	b.n	800181a <_scanf_float+0x182>
 8001886:	6821      	ldr	r1, [r4, #0]
 8001888:	f401 60a0 	and.w	r0, r1, #1280	; 0x500
 800188c:	f5b0 6f80 	cmp.w	r0, #1024	; 0x400
 8001890:	d006      	beq.n	80018a0 <_scanf_float+0x208>
 8001892:	0548      	lsls	r0, r1, #21
 8001894:	f57f af38 	bpl.w	8001708 <_scanf_float+0x70>
 8001898:	f1b9 0f00 	cmp.w	r9, #0
 800189c:	f43f af3b 	beq.w	8001716 <_scanf_float+0x7e>
 80018a0:	0588      	lsls	r0, r1, #22
 80018a2:	bf58      	it	pl
 80018a4:	9802      	ldrpl	r0, [sp, #8]
 80018a6:	f421 61f0 	bic.w	r1, r1, #1920	; 0x780
 80018aa:	bf58      	it	pl
 80018ac:	eba9 0000 	subpl.w	r0, r9, r0
 80018b0:	f441 71c0 	orr.w	r1, r1, #384	; 0x180
 80018b4:	bf58      	it	pl
 80018b6:	e9cd 0503 	strdpl	r0, r5, [sp, #12]
 80018ba:	6021      	str	r1, [r4, #0]
 80018bc:	f04f 0900 	mov.w	r9, #0
 80018c0:	e7ab      	b.n	800181a <_scanf_float+0x182>
 80018c2:	2203      	movs	r2, #3
 80018c4:	e7a9      	b.n	800181a <_scanf_float+0x182>
 80018c6:	f8d4 3180 	ldr.w	r3, [r4, #384]	; 0x180
 80018ca:	9205      	str	r2, [sp, #20]
 80018cc:	4631      	mov	r1, r6
 80018ce:	4638      	mov	r0, r7
 80018d0:	4798      	blx	r3
 80018d2:	9a05      	ldr	r2, [sp, #20]
 80018d4:	2800      	cmp	r0, #0
 80018d6:	f43f af04 	beq.w	80016e2 <_scanf_float+0x4a>
 80018da:	e715      	b.n	8001708 <_scanf_float+0x70>
 80018dc:	f8d4 317c 	ldr.w	r3, [r4, #380]	; 0x17c
 80018e0:	f815 1d01 	ldrb.w	r1, [r5, #-1]!
 80018e4:	4632      	mov	r2, r6
 80018e6:	4638      	mov	r0, r7
 80018e8:	4798      	blx	r3
 80018ea:	6923      	ldr	r3, [r4, #16]
 80018ec:	3b01      	subs	r3, #1
 80018ee:	6123      	str	r3, [r4, #16]
 80018f0:	e715      	b.n	800171e <_scanf_float+0x86>
 80018f2:	f10b 33ff 	add.w	r3, fp, #4294967295
 80018f6:	2b06      	cmp	r3, #6
 80018f8:	d80a      	bhi.n	8001910 <_scanf_float+0x278>
 80018fa:	f1bb 0f02 	cmp.w	fp, #2
 80018fe:	d967      	bls.n	80019d0 <_scanf_float+0x338>
 8001900:	f1ab 0b03 	sub.w	fp, fp, #3
 8001904:	fa5f fb8b 	uxtb.w	fp, fp
 8001908:	eba5 0b0b 	sub.w	fp, r5, fp
 800190c:	455d      	cmp	r5, fp
 800190e:	d14a      	bne.n	80019a6 <_scanf_float+0x30e>
 8001910:	6823      	ldr	r3, [r4, #0]
 8001912:	05da      	lsls	r2, r3, #23
 8001914:	d51f      	bpl.n	8001956 <_scanf_float+0x2be>
 8001916:	055b      	lsls	r3, r3, #21
 8001918:	d467      	bmi.n	80019ea <_scanf_float+0x352>
 800191a:	f815 1c01 	ldrb.w	r1, [r5, #-1]
 800191e:	6923      	ldr	r3, [r4, #16]
 8001920:	2965      	cmp	r1, #101	; 0x65
 8001922:	f103 33ff 	add.w	r3, r3, #4294967295
 8001926:	f105 3bff 	add.w	fp, r5, #4294967295
 800192a:	6123      	str	r3, [r4, #16]
 800192c:	d00d      	beq.n	800194a <_scanf_float+0x2b2>
 800192e:	2945      	cmp	r1, #69	; 0x45
 8001930:	d00b      	beq.n	800194a <_scanf_float+0x2b2>
 8001932:	f8d4 317c 	ldr.w	r3, [r4, #380]	; 0x17c
 8001936:	4632      	mov	r2, r6
 8001938:	4638      	mov	r0, r7
 800193a:	4798      	blx	r3
 800193c:	6923      	ldr	r3, [r4, #16]
 800193e:	f815 1c02 	ldrb.w	r1, [r5, #-2]
 8001942:	3b01      	subs	r3, #1
 8001944:	f1a5 0b02 	sub.w	fp, r5, #2
 8001948:	6123      	str	r3, [r4, #16]
 800194a:	f8d4 317c 	ldr.w	r3, [r4, #380]	; 0x17c
 800194e:	4632      	mov	r2, r6
 8001950:	4638      	mov	r0, r7
 8001952:	4798      	blx	r3
 8001954:	465d      	mov	r5, fp
 8001956:	6826      	ldr	r6, [r4, #0]
 8001958:	f016 0610 	ands.w	r6, r6, #16
 800195c:	d176      	bne.n	8001a4c <_scanf_float+0x3b4>
 800195e:	702e      	strb	r6, [r5, #0]
 8001960:	6823      	ldr	r3, [r4, #0]
 8001962:	f403 63c0 	and.w	r3, r3, #1536	; 0x600
 8001966:	f5b3 6f80 	cmp.w	r3, #1024	; 0x400
 800196a:	d141      	bne.n	80019f0 <_scanf_float+0x358>
 800196c:	9b02      	ldr	r3, [sp, #8]
 800196e:	eba9 0303 	sub.w	r3, r9, r3
 8001972:	425a      	negs	r2, r3
 8001974:	2b00      	cmp	r3, #0
 8001976:	d148      	bne.n	8001a0a <_scanf_float+0x372>
 8001978:	4641      	mov	r1, r8
 800197a:	2200      	movs	r2, #0
 800197c:	4638      	mov	r0, r7
 800197e:	f000 feaf 	bl	80026e0 <_strtod_r>
 8001982:	6825      	ldr	r5, [r4, #0]
 8001984:	f8da 3000 	ldr.w	r3, [sl]
 8001988:	f015 0f02 	tst.w	r5, #2
 800198c:	4680      	mov	r8, r0
 800198e:	4689      	mov	r9, r1
 8001990:	d046      	beq.n	8001a20 <_scanf_float+0x388>
 8001992:	1d1a      	adds	r2, r3, #4
 8001994:	f8ca 2000 	str.w	r2, [sl]
 8001998:	681b      	ldr	r3, [r3, #0]
 800199a:	e9c3 8900 	strd	r8, r9, [r3]
 800199e:	68e3      	ldr	r3, [r4, #12]
 80019a0:	3301      	adds	r3, #1
 80019a2:	60e3      	str	r3, [r4, #12]
 80019a4:	e6bf      	b.n	8001726 <_scanf_float+0x8e>
 80019a6:	f8d4 317c 	ldr.w	r3, [r4, #380]	; 0x17c
 80019aa:	f815 1d01 	ldrb.w	r1, [r5, #-1]!
 80019ae:	4632      	mov	r2, r6
 80019b0:	4638      	mov	r0, r7
 80019b2:	4798      	blx	r3
 80019b4:	6923      	ldr	r3, [r4, #16]
 80019b6:	3b01      	subs	r3, #1
 80019b8:	6123      	str	r3, [r4, #16]
 80019ba:	e7a7      	b.n	800190c <_scanf_float+0x274>
 80019bc:	f8d4 317c 	ldr.w	r3, [r4, #380]	; 0x17c
 80019c0:	f815 1d01 	ldrb.w	r1, [r5, #-1]!
 80019c4:	4632      	mov	r2, r6
 80019c6:	4638      	mov	r0, r7
 80019c8:	4798      	blx	r3
 80019ca:	6923      	ldr	r3, [r4, #16]
 80019cc:	3b01      	subs	r3, #1
 80019ce:	6123      	str	r3, [r4, #16]
 80019d0:	4545      	cmp	r5, r8
 80019d2:	d8f3      	bhi.n	80019bc <_scanf_float+0x324>
 80019d4:	e6a6      	b.n	8001724 <_scanf_float+0x8c>
 80019d6:	f8d4 317c 	ldr.w	r3, [r4, #380]	; 0x17c
 80019da:	f815 1d01 	ldrb.w	r1, [r5, #-1]!
 80019de:	4632      	mov	r2, r6
 80019e0:	4638      	mov	r0, r7
 80019e2:	4798      	blx	r3
 80019e4:	6923      	ldr	r3, [r4, #16]
 80019e6:	3b01      	subs	r3, #1
 80019e8:	6123      	str	r3, [r4, #16]
 80019ea:	4545      	cmp	r5, r8
 80019ec:	d8f3      	bhi.n	80019d6 <_scanf_float+0x33e>
 80019ee:	e699      	b.n	8001724 <_scanf_float+0x8c>
 80019f0:	9b03      	ldr	r3, [sp, #12]
 80019f2:	2b00      	cmp	r3, #0
 80019f4:	d0c0      	beq.n	8001978 <_scanf_float+0x2e0>
 80019f6:	9904      	ldr	r1, [sp, #16]
 80019f8:	230a      	movs	r3, #10
 80019fa:	4632      	mov	r2, r6
 80019fc:	3101      	adds	r1, #1
 80019fe:	4638      	mov	r0, r7
 8001a00:	f000 fefa 	bl	80027f8 <_strtol_r>
 8001a04:	9b03      	ldr	r3, [sp, #12]
 8001a06:	9d04      	ldr	r5, [sp, #16]
 8001a08:	1ac2      	subs	r2, r0, r3
 8001a0a:	f204 136f 	addw	r3, r4, #367	; 0x16f
 8001a0e:	429d      	cmp	r5, r3
 8001a10:	bf28      	it	cs
 8001a12:	f504 75b7 	addcs.w	r5, r4, #366	; 0x16e
 8001a16:	490e      	ldr	r1, [pc, #56]	; (8001a50 <_scanf_float+0x3b8>)
 8001a18:	4628      	mov	r0, r5
 8001a1a:	f000 f81f 	bl	8001a5c <siprintf>
 8001a1e:	e7ab      	b.n	8001978 <_scanf_float+0x2e0>
 8001a20:	1d1f      	adds	r7, r3, #4
 8001a22:	f015 0504 	ands.w	r5, r5, #4
 8001a26:	f8ca 7000 	str.w	r7, [sl]
 8001a2a:	d1b5      	bne.n	8001998 <_scanf_float+0x300>
 8001a2c:	681f      	ldr	r7, [r3, #0]
 8001a2e:	4602      	mov	r2, r0
 8001a30:	460b      	mov	r3, r1
 8001a32:	f7ff f89b 	bl	8000b6c <__aeabi_dcmpun>
 8001a36:	b120      	cbz	r0, 8001a42 <_scanf_float+0x3aa>
 8001a38:	4628      	mov	r0, r5
 8001a3a:	f000 f80b 	bl	8001a54 <nanf>
 8001a3e:	6038      	str	r0, [r7, #0]
 8001a40:	e7ad      	b.n	800199e <_scanf_float+0x306>
 8001a42:	4640      	mov	r0, r8
 8001a44:	4649      	mov	r1, r9
 8001a46:	f7ff f8ef 	bl	8000c28 <__aeabi_d2f>
 8001a4a:	e7f8      	b.n	8001a3e <_scanf_float+0x3a6>
 8001a4c:	2600      	movs	r6, #0
 8001a4e:	e66a      	b.n	8001726 <_scanf_float+0x8e>
 8001a50:	080048ac 	.word	0x080048ac

08001a54 <nanf>:
 8001a54:	4800      	ldr	r0, [pc, #0]	; (8001a58 <nanf+0x4>)
 8001a56:	4770      	bx	lr
 8001a58:	7fc00000 	.word	0x7fc00000

08001a5c <siprintf>:
 8001a5c:	b40e      	push	{r1, r2, r3}
 8001a5e:	b500      	push	{lr}
 8001a60:	b09c      	sub	sp, #112	; 0x70
 8001a62:	ab1d      	add	r3, sp, #116	; 0x74
 8001a64:	9002      	str	r0, [sp, #8]
 8001a66:	9006      	str	r0, [sp, #24]
 8001a68:	f06f 4100 	mvn.w	r1, #2147483648	; 0x80000000
 8001a6c:	4809      	ldr	r0, [pc, #36]	; (8001a94 <siprintf+0x38>)
 8001a6e:	9107      	str	r1, [sp, #28]
 8001a70:	9104      	str	r1, [sp, #16]
 8001a72:	4909      	ldr	r1, [pc, #36]	; (8001a98 <siprintf+0x3c>)
 8001a74:	f853 2b04 	ldr.w	r2, [r3], #4
 8001a78:	9105      	str	r1, [sp, #20]
 8001a7a:	6800      	ldr	r0, [r0, #0]
 8001a7c:	9301      	str	r3, [sp, #4]
 8001a7e:	a902      	add	r1, sp, #8
 8001a80:	f002 fd7c 	bl	800457c <_svfiprintf_r>
 8001a84:	9b02      	ldr	r3, [sp, #8]
 8001a86:	2200      	movs	r2, #0
 8001a88:	701a      	strb	r2, [r3, #0]
 8001a8a:	b01c      	add	sp, #112	; 0x70
 8001a8c:	f85d eb04 	ldr.w	lr, [sp], #4
 8001a90:	b003      	add	sp, #12
 8001a92:	4770      	bx	lr
 8001a94:	20000000 	.word	0x20000000
 8001a98:	ffff0208 	.word	0xffff0208

08001a9c <sulp>:
 8001a9c:	e92d 41f0 	stmdb	sp!, {r4, r5, r6, r7, r8, lr}
 8001aa0:	460f      	mov	r7, r1
 8001aa2:	4690      	mov	r8, r2
 8001aa4:	f002 fb2c 	bl	8004100 <__ulp>
 8001aa8:	4604      	mov	r4, r0
 8001aaa:	460d      	mov	r5, r1
 8001aac:	f1b8 0f00 	cmp.w	r8, #0
 8001ab0:	d011      	beq.n	8001ad6 <sulp+0x3a>
 8001ab2:	f3c7 530a 	ubfx	r3, r7, #20, #11
 8001ab6:	f1c3 036b 	rsb	r3, r3, #107	; 0x6b
 8001aba:	2b00      	cmp	r3, #0
 8001abc:	dd0b      	ble.n	8001ad6 <sulp+0x3a>
 8001abe:	051b      	lsls	r3, r3, #20
 8001ac0:	f103 557f 	add.w	r5, r3, #1069547520	; 0x3fc00000
 8001ac4:	2400      	movs	r4, #0
 8001ac6:	f505 1540 	add.w	r5, r5, #3145728	; 0x300000
 8001aca:	4622      	mov	r2, r4
 8001acc:	462b      	mov	r3, r5
 8001ace:	f7fe fdb3 	bl	8000638 <__aeabi_dmul>
 8001ad2:	4604      	mov	r4, r0
 8001ad4:	460d      	mov	r5, r1
 8001ad6:	4620      	mov	r0, r4
 8001ad8:	4629      	mov	r1, r5
 8001ada:	e8bd 81f0 	ldmia.w	sp!, {r4, r5, r6, r7, r8, pc}
	...

08001ae0 <_strtod_l>:
 8001ae0:	e92d 4ff0 	stmdb	sp!, {r4, r5, r6, r7, r8, r9, sl, fp, lr}
 8001ae4:	461f      	mov	r7, r3
 8001ae6:	b0a1      	sub	sp, #132	; 0x84
 8001ae8:	2300      	movs	r3, #0
 8001aea:	4683      	mov	fp, r0
 8001aec:	4638      	mov	r0, r7
 8001aee:	460e      	mov	r6, r1
 8001af0:	9217      	str	r2, [sp, #92]	; 0x5c
 8001af2:	931c      	str	r3, [sp, #112]	; 0x70
 8001af4:	f002 f803 	bl	8003afe <__localeconv_l>
 8001af8:	4680      	mov	r8, r0
 8001afa:	6800      	ldr	r0, [r0, #0]
 8001afc:	f7fe fb88 	bl	8000210 <strlen>
 8001b00:	f04f 0900 	mov.w	r9, #0
 8001b04:	4604      	mov	r4, r0
 8001b06:	f04f 0a00 	mov.w	sl, #0
 8001b0a:	961b      	str	r6, [sp, #108]	; 0x6c
 8001b0c:	9b1b      	ldr	r3, [sp, #108]	; 0x6c
 8001b0e:	781a      	ldrb	r2, [r3, #0]
 8001b10:	2a0d      	cmp	r2, #13
 8001b12:	d832      	bhi.n	8001b7a <_strtod_l+0x9a>
 8001b14:	2a09      	cmp	r2, #9
 8001b16:	d236      	bcs.n	8001b86 <_strtod_l+0xa6>
 8001b18:	2a00      	cmp	r2, #0
 8001b1a:	d03e      	beq.n	8001b9a <_strtod_l+0xba>
 8001b1c:	2300      	movs	r3, #0
 8001b1e:	930d      	str	r3, [sp, #52]	; 0x34
 8001b20:	9d1b      	ldr	r5, [sp, #108]	; 0x6c
 8001b22:	782b      	ldrb	r3, [r5, #0]
 8001b24:	2b30      	cmp	r3, #48	; 0x30
 8001b26:	f040 80ac 	bne.w	8001c82 <_strtod_l+0x1a2>
 8001b2a:	786b      	ldrb	r3, [r5, #1]
 8001b2c:	2b58      	cmp	r3, #88	; 0x58
 8001b2e:	d001      	beq.n	8001b34 <_strtod_l+0x54>
 8001b30:	2b78      	cmp	r3, #120	; 0x78
 8001b32:	d167      	bne.n	8001c04 <_strtod_l+0x124>
 8001b34:	9b0d      	ldr	r3, [sp, #52]	; 0x34
 8001b36:	9301      	str	r3, [sp, #4]
 8001b38:	ab1c      	add	r3, sp, #112	; 0x70
 8001b3a:	9300      	str	r3, [sp, #0]
 8001b3c:	9702      	str	r7, [sp, #8]
 8001b3e:	ab1d      	add	r3, sp, #116	; 0x74
 8001b40:	4a88      	ldr	r2, [pc, #544]	; (8001d64 <_strtod_l+0x284>)
 8001b42:	a91b      	add	r1, sp, #108	; 0x6c
 8001b44:	4658      	mov	r0, fp
 8001b46:	f001 fd00 	bl	800354a <__gethex>
 8001b4a:	f010 0407 	ands.w	r4, r0, #7
 8001b4e:	4606      	mov	r6, r0
 8001b50:	d005      	beq.n	8001b5e <_strtod_l+0x7e>
 8001b52:	2c06      	cmp	r4, #6
 8001b54:	d12b      	bne.n	8001bae <_strtod_l+0xce>
 8001b56:	3501      	adds	r5, #1
 8001b58:	2300      	movs	r3, #0
 8001b5a:	951b      	str	r5, [sp, #108]	; 0x6c
 8001b5c:	930d      	str	r3, [sp, #52]	; 0x34
 8001b5e:	9b17      	ldr	r3, [sp, #92]	; 0x5c
 8001b60:	2b00      	cmp	r3, #0
 8001b62:	f040 85a6 	bne.w	80026b2 <_strtod_l+0xbd2>
 8001b66:	9b0d      	ldr	r3, [sp, #52]	; 0x34
 8001b68:	b1e3      	cbz	r3, 8001ba4 <_strtod_l+0xc4>
 8001b6a:	464a      	mov	r2, r9
 8001b6c:	f10a 4300 	add.w	r3, sl, #2147483648	; 0x80000000
 8001b70:	4610      	mov	r0, r2
 8001b72:	4619      	mov	r1, r3
 8001b74:	b021      	add	sp, #132	; 0x84
 8001b76:	e8bd 8ff0 	ldmia.w	sp!, {r4, r5, r6, r7, r8, r9, sl, fp, pc}
 8001b7a:	2a2b      	cmp	r2, #43	; 0x2b
 8001b7c:	d015      	beq.n	8001baa <_strtod_l+0xca>
 8001b7e:	2a2d      	cmp	r2, #45	; 0x2d
 8001b80:	d004      	beq.n	8001b8c <_strtod_l+0xac>
 8001b82:	2a20      	cmp	r2, #32
 8001b84:	d1ca      	bne.n	8001b1c <_strtod_l+0x3c>
 8001b86:	3301      	adds	r3, #1
 8001b88:	931b      	str	r3, [sp, #108]	; 0x6c
 8001b8a:	e7bf      	b.n	8001b0c <_strtod_l+0x2c>
 8001b8c:	2201      	movs	r2, #1
 8001b8e:	920d      	str	r2, [sp, #52]	; 0x34
 8001b90:	1c5a      	adds	r2, r3, #1
 8001b92:	921b      	str	r2, [sp, #108]	; 0x6c
 8001b94:	785b      	ldrb	r3, [r3, #1]
 8001b96:	2b00      	cmp	r3, #0
 8001b98:	d1c2      	bne.n	8001b20 <_strtod_l+0x40>
 8001b9a:	9b17      	ldr	r3, [sp, #92]	; 0x5c
 8001b9c:	961b      	str	r6, [sp, #108]	; 0x6c
 8001b9e:	2b00      	cmp	r3, #0
 8001ba0:	f040 8585 	bne.w	80026ae <_strtod_l+0xbce>
 8001ba4:	464a      	mov	r2, r9
 8001ba6:	4653      	mov	r3, sl
 8001ba8:	e7e2      	b.n	8001b70 <_strtod_l+0x90>
 8001baa:	2200      	movs	r2, #0
 8001bac:	e7ef      	b.n	8001b8e <_strtod_l+0xae>
 8001bae:	9a1c      	ldr	r2, [sp, #112]	; 0x70
 8001bb0:	b13a      	cbz	r2, 8001bc2 <_strtod_l+0xe2>
 8001bb2:	2135      	movs	r1, #53	; 0x35
 8001bb4:	a81e      	add	r0, sp, #120	; 0x78
 8001bb6:	f002 fb96 	bl	80042e6 <__copybits>
 8001bba:	991c      	ldr	r1, [sp, #112]	; 0x70
 8001bbc:	4658      	mov	r0, fp
 8001bbe:	f002 f808 	bl	8003bd2 <_Bfree>
 8001bc2:	3c01      	subs	r4, #1
 8001bc4:	2c04      	cmp	r4, #4
 8001bc6:	d806      	bhi.n	8001bd6 <_strtod_l+0xf6>
 8001bc8:	e8df f004 	tbb	[pc, r4]
 8001bcc:	1714030a 	.word	0x1714030a
 8001bd0:	0a          	.byte	0x0a
 8001bd1:	00          	.byte	0x00
 8001bd2:	e9dd 9a1e 	ldrd	r9, sl, [sp, #120]	; 0x78
 8001bd6:	0731      	lsls	r1, r6, #28
 8001bd8:	d5c1      	bpl.n	8001b5e <_strtod_l+0x7e>
 8001bda:	f04a 4a00 	orr.w	sl, sl, #2147483648	; 0x80000000
 8001bde:	e7be      	b.n	8001b5e <_strtod_l+0x7e>
 8001be0:	e9dd 931e 	ldrd	r9, r3, [sp, #120]	; 0x78
 8001be4:	9a1d      	ldr	r2, [sp, #116]	; 0x74
 8001be6:	f423 1380 	bic.w	r3, r3, #1048576	; 0x100000
 8001bea:	f202 4233 	addw	r2, r2, #1075	; 0x433
 8001bee:	ea43 5a02 	orr.w	sl, r3, r2, lsl #20
 8001bf2:	e7f0      	b.n	8001bd6 <_strtod_l+0xf6>
 8001bf4:	f8df a170 	ldr.w	sl, [pc, #368]	; 8001d68 <_strtod_l+0x288>
 8001bf8:	e7ed      	b.n	8001bd6 <_strtod_l+0xf6>
 8001bfa:	f06f 4a00 	mvn.w	sl, #2147483648	; 0x80000000
 8001bfe:	f04f 39ff 	mov.w	r9, #4294967295
 8001c02:	e7e8      	b.n	8001bd6 <_strtod_l+0xf6>
 8001c04:	9b1b      	ldr	r3, [sp, #108]	; 0x6c
 8001c06:	1c5a      	adds	r2, r3, #1
 8001c08:	921b      	str	r2, [sp, #108]	; 0x6c
 8001c0a:	785b      	ldrb	r3, [r3, #1]
 8001c0c:	2b30      	cmp	r3, #48	; 0x30
 8001c0e:	d0f9      	beq.n	8001c04 <_strtod_l+0x124>
 8001c10:	2b00      	cmp	r3, #0
 8001c12:	d0a4      	beq.n	8001b5e <_strtod_l+0x7e>
 8001c14:	2301      	movs	r3, #1
 8001c16:	2500      	movs	r5, #0
 8001c18:	9307      	str	r3, [sp, #28]
 8001c1a:	9b1b      	ldr	r3, [sp, #108]	; 0x6c
 8001c1c:	9308      	str	r3, [sp, #32]
 8001c1e:	9506      	str	r5, [sp, #24]
 8001c20:	9504      	str	r5, [sp, #16]
 8001c22:	220a      	movs	r2, #10
 8001c24:	981b      	ldr	r0, [sp, #108]	; 0x6c
 8001c26:	7807      	ldrb	r7, [r0, #0]
 8001c28:	f1a7 0330 	sub.w	r3, r7, #48	; 0x30
 8001c2c:	b2d9      	uxtb	r1, r3
 8001c2e:	2909      	cmp	r1, #9
 8001c30:	d929      	bls.n	8001c86 <_strtod_l+0x1a6>
 8001c32:	4622      	mov	r2, r4
 8001c34:	f8d8 1000 	ldr.w	r1, [r8]
 8001c38:	f002 fda8 	bl	800478c <strncmp>
 8001c3c:	2800      	cmp	r0, #0
 8001c3e:	d031      	beq.n	8001ca4 <_strtod_l+0x1c4>
 8001c40:	2000      	movs	r0, #0
 8001c42:	9c04      	ldr	r4, [sp, #16]
 8001c44:	9005      	str	r0, [sp, #20]
 8001c46:	463b      	mov	r3, r7
 8001c48:	4602      	mov	r2, r0
 8001c4a:	2b65      	cmp	r3, #101	; 0x65
 8001c4c:	d001      	beq.n	8001c52 <_strtod_l+0x172>
 8001c4e:	2b45      	cmp	r3, #69	; 0x45
 8001c50:	d114      	bne.n	8001c7c <_strtod_l+0x19c>
 8001c52:	b924      	cbnz	r4, 8001c5e <_strtod_l+0x17e>
 8001c54:	b910      	cbnz	r0, 8001c5c <_strtod_l+0x17c>
 8001c56:	9b07      	ldr	r3, [sp, #28]
 8001c58:	2b00      	cmp	r3, #0
 8001c5a:	d09e      	beq.n	8001b9a <_strtod_l+0xba>
 8001c5c:	2400      	movs	r4, #0
 8001c5e:	9e1b      	ldr	r6, [sp, #108]	; 0x6c
 8001c60:	1c73      	adds	r3, r6, #1
 8001c62:	931b      	str	r3, [sp, #108]	; 0x6c
 8001c64:	7873      	ldrb	r3, [r6, #1]
 8001c66:	2b2b      	cmp	r3, #43	; 0x2b
 8001c68:	d078      	beq.n	8001d5c <_strtod_l+0x27c>
 8001c6a:	2b2d      	cmp	r3, #45	; 0x2d
 8001c6c:	d070      	beq.n	8001d50 <_strtod_l+0x270>
 8001c6e:	f04f 0c00 	mov.w	ip, #0
 8001c72:	f1a3 0730 	sub.w	r7, r3, #48	; 0x30
 8001c76:	2f09      	cmp	r7, #9
 8001c78:	d97c      	bls.n	8001d74 <_strtod_l+0x294>
 8001c7a:	961b      	str	r6, [sp, #108]	; 0x6c
 8001c7c:	f04f 0e00 	mov.w	lr, #0
 8001c80:	e09a      	b.n	8001db8 <_strtod_l+0x2d8>
 8001c82:	2300      	movs	r3, #0
 8001c84:	e7c7      	b.n	8001c16 <_strtod_l+0x136>
 8001c86:	9904      	ldr	r1, [sp, #16]
 8001c88:	2908      	cmp	r1, #8
 8001c8a:	bfdd      	ittte	le
 8001c8c:	9906      	ldrle	r1, [sp, #24]
 8001c8e:	fb02 3301 	mlale	r3, r2, r1, r3
 8001c92:	9306      	strle	r3, [sp, #24]
 8001c94:	fb02 3505 	mlagt	r5, r2, r5, r3
 8001c98:	9b04      	ldr	r3, [sp, #16]
 8001c9a:	3001      	adds	r0, #1
 8001c9c:	3301      	adds	r3, #1
 8001c9e:	9304      	str	r3, [sp, #16]
 8001ca0:	901b      	str	r0, [sp, #108]	; 0x6c
 8001ca2:	e7bf      	b.n	8001c24 <_strtod_l+0x144>
 8001ca4:	9b1b      	ldr	r3, [sp, #108]	; 0x6c
 8001ca6:	191a      	adds	r2, r3, r4
 8001ca8:	921b      	str	r2, [sp, #108]	; 0x6c
 8001caa:	9a04      	ldr	r2, [sp, #16]
 8001cac:	5d1b      	ldrb	r3, [r3, r4]
 8001cae:	2a00      	cmp	r2, #0
 8001cb0:	d037      	beq.n	8001d22 <_strtod_l+0x242>
 8001cb2:	9c04      	ldr	r4, [sp, #16]
 8001cb4:	4602      	mov	r2, r0
 8001cb6:	f1a3 0130 	sub.w	r1, r3, #48	; 0x30
 8001cba:	2909      	cmp	r1, #9
 8001cbc:	d913      	bls.n	8001ce6 <_strtod_l+0x206>
 8001cbe:	2101      	movs	r1, #1
 8001cc0:	9105      	str	r1, [sp, #20]
 8001cc2:	e7c2      	b.n	8001c4a <_strtod_l+0x16a>
 8001cc4:	9b1b      	ldr	r3, [sp, #108]	; 0x6c
 8001cc6:	1c5a      	adds	r2, r3, #1
 8001cc8:	921b      	str	r2, [sp, #108]	; 0x6c
 8001cca:	785b      	ldrb	r3, [r3, #1]
 8001ccc:	3001      	adds	r0, #1
 8001cce:	2b30      	cmp	r3, #48	; 0x30
 8001cd0:	d0f8      	beq.n	8001cc4 <_strtod_l+0x1e4>
 8001cd2:	f1a3 0231 	sub.w	r2, r3, #49	; 0x31
 8001cd6:	2a08      	cmp	r2, #8
 8001cd8:	f200 84f0 	bhi.w	80026bc <_strtod_l+0xbdc>
 8001cdc:	9a1b      	ldr	r2, [sp, #108]	; 0x6c
 8001cde:	9208      	str	r2, [sp, #32]
 8001ce0:	4602      	mov	r2, r0
 8001ce2:	2000      	movs	r0, #0
 8001ce4:	4604      	mov	r4, r0
 8001ce6:	f1b3 0e30 	subs.w	lr, r3, #48	; 0x30
 8001cea:	f100 0101 	add.w	r1, r0, #1
 8001cee:	d012      	beq.n	8001d16 <_strtod_l+0x236>
 8001cf0:	440a      	add	r2, r1
 8001cf2:	eb00 0c04 	add.w	ip, r0, r4
 8001cf6:	4621      	mov	r1, r4
 8001cf8:	270a      	movs	r7, #10
 8001cfa:	458c      	cmp	ip, r1
 8001cfc:	d113      	bne.n	8001d26 <_strtod_l+0x246>
 8001cfe:	1821      	adds	r1, r4, r0
 8001d00:	2908      	cmp	r1, #8
 8001d02:	f104 0401 	add.w	r4, r4, #1
 8001d06:	4404      	add	r4, r0
 8001d08:	dc19      	bgt.n	8001d3e <_strtod_l+0x25e>
 8001d0a:	9b06      	ldr	r3, [sp, #24]
 8001d0c:	210a      	movs	r1, #10
 8001d0e:	fb01 e303 	mla	r3, r1, r3, lr
 8001d12:	9306      	str	r3, [sp, #24]
 8001d14:	2100      	movs	r1, #0
 8001d16:	9b1b      	ldr	r3, [sp, #108]	; 0x6c
 8001d18:	1c58      	adds	r0, r3, #1
 8001d1a:	901b      	str	r0, [sp, #108]	; 0x6c
 8001d1c:	785b      	ldrb	r3, [r3, #1]
 8001d1e:	4608      	mov	r0, r1
 8001d20:	e7c9      	b.n	8001cb6 <_strtod_l+0x1d6>
 8001d22:	9804      	ldr	r0, [sp, #16]
 8001d24:	e7d3      	b.n	8001cce <_strtod_l+0x1ee>
 8001d26:	2908      	cmp	r1, #8
 8001d28:	f101 0101 	add.w	r1, r1, #1
 8001d2c:	dc03      	bgt.n	8001d36 <_strtod_l+0x256>
 8001d2e:	9b06      	ldr	r3, [sp, #24]
 8001d30:	437b      	muls	r3, r7
 8001d32:	9306      	str	r3, [sp, #24]
 8001d34:	e7e1      	b.n	8001cfa <_strtod_l+0x21a>
 8001d36:	2910      	cmp	r1, #16
 8001d38:	bfd8      	it	le
 8001d3a:	437d      	mulle	r5, r7
 8001d3c:	e7dd      	b.n	8001cfa <_strtod_l+0x21a>
 8001d3e:	2c10      	cmp	r4, #16
 8001d40:	bfdc      	itt	le
 8001d42:	210a      	movle	r1, #10
 8001d44:	fb01 e505 	mlale	r5, r1, r5, lr
 8001d48:	e7e4      	b.n	8001d14 <_strtod_l+0x234>
 8001d4a:	2301      	movs	r3, #1
 8001d4c:	9305      	str	r3, [sp, #20]
 8001d4e:	e781      	b.n	8001c54 <_strtod_l+0x174>
 8001d50:	f04f 0c01 	mov.w	ip, #1
 8001d54:	1cb3      	adds	r3, r6, #2
 8001d56:	931b      	str	r3, [sp, #108]	; 0x6c
 8001d58:	78b3      	ldrb	r3, [r6, #2]
 8001d5a:	e78a      	b.n	8001c72 <_strtod_l+0x192>
 8001d5c:	f04f 0c00 	mov.w	ip, #0
 8001d60:	e7f8      	b.n	8001d54 <_strtod_l+0x274>
 8001d62:	bf00      	nop
 8001d64:	080048b4 	.word	0x080048b4
 8001d68:	7ff00000 	.word	0x7ff00000
 8001d6c:	9b1b      	ldr	r3, [sp, #108]	; 0x6c
 8001d6e:	1c5f      	adds	r7, r3, #1
 8001d70:	971b      	str	r7, [sp, #108]	; 0x6c
 8001d72:	785b      	ldrb	r3, [r3, #1]
 8001d74:	2b30      	cmp	r3, #48	; 0x30
 8001d76:	d0f9      	beq.n	8001d6c <_strtod_l+0x28c>
 8001d78:	f1a3 0731 	sub.w	r7, r3, #49	; 0x31
 8001d7c:	2f08      	cmp	r7, #8
 8001d7e:	f63f af7d 	bhi.w	8001c7c <_strtod_l+0x19c>
 8001d82:	f1a3 0e30 	sub.w	lr, r3, #48	; 0x30
 8001d86:	9b1b      	ldr	r3, [sp, #108]	; 0x6c
 8001d88:	9309      	str	r3, [sp, #36]	; 0x24
 8001d8a:	9b1b      	ldr	r3, [sp, #108]	; 0x6c
 8001d8c:	1c5f      	adds	r7, r3, #1
 8001d8e:	971b      	str	r7, [sp, #108]	; 0x6c
 8001d90:	785b      	ldrb	r3, [r3, #1]
 8001d92:	f1a3 0830 	sub.w	r8, r3, #48	; 0x30
 8001d96:	f1b8 0f09 	cmp.w	r8, #9
 8001d9a:	d937      	bls.n	8001e0c <_strtod_l+0x32c>
 8001d9c:	9909      	ldr	r1, [sp, #36]	; 0x24
 8001d9e:	1a7f      	subs	r7, r7, r1
 8001da0:	2f08      	cmp	r7, #8
 8001da2:	f644 671f 	movw	r7, #19999	; 0x4e1f
 8001da6:	dc37      	bgt.n	8001e18 <_strtod_l+0x338>
 8001da8:	45be      	cmp	lr, r7
 8001daa:	bfa8      	it	ge
 8001dac:	46be      	movge	lr, r7
 8001dae:	f1bc 0f00 	cmp.w	ip, #0
 8001db2:	d001      	beq.n	8001db8 <_strtod_l+0x2d8>
 8001db4:	f1ce 0e00 	rsb	lr, lr, #0
 8001db8:	2c00      	cmp	r4, #0
 8001dba:	d151      	bne.n	8001e60 <_strtod_l+0x380>
 8001dbc:	2800      	cmp	r0, #0
 8001dbe:	f47f aece 	bne.w	8001b5e <_strtod_l+0x7e>
 8001dc2:	9a07      	ldr	r2, [sp, #28]
 8001dc4:	2a00      	cmp	r2, #0
 8001dc6:	f47f aeca 	bne.w	8001b5e <_strtod_l+0x7e>
 8001dca:	9a05      	ldr	r2, [sp, #20]
 8001dcc:	2a00      	cmp	r2, #0
 8001dce:	f47f aee4 	bne.w	8001b9a <_strtod_l+0xba>
 8001dd2:	2b4e      	cmp	r3, #78	; 0x4e
 8001dd4:	d027      	beq.n	8001e26 <_strtod_l+0x346>
 8001dd6:	dc21      	bgt.n	8001e1c <_strtod_l+0x33c>
 8001dd8:	2b49      	cmp	r3, #73	; 0x49
 8001dda:	f47f aede 	bne.w	8001b9a <_strtod_l+0xba>
 8001dde:	49a4      	ldr	r1, [pc, #656]	; (8002070 <_strtod_l+0x590>)
 8001de0:	a81b      	add	r0, sp, #108	; 0x6c
 8001de2:	f001 fde5 	bl	80039b0 <__match>
 8001de6:	2800      	cmp	r0, #0
 8001de8:	f43f aed7 	beq.w	8001b9a <_strtod_l+0xba>
 8001dec:	9b1b      	ldr	r3, [sp, #108]	; 0x6c
 8001dee:	49a1      	ldr	r1, [pc, #644]	; (8002074 <_strtod_l+0x594>)
 8001df0:	3b01      	subs	r3, #1
 8001df2:	a81b      	add	r0, sp, #108	; 0x6c
 8001df4:	931b      	str	r3, [sp, #108]	; 0x6c
 8001df6:	f001 fddb 	bl	80039b0 <__match>
 8001dfa:	b910      	cbnz	r0, 8001e02 <_strtod_l+0x322>
 8001dfc:	9b1b      	ldr	r3, [sp, #108]	; 0x6c
 8001dfe:	3301      	adds	r3, #1
 8001e00:	931b      	str	r3, [sp, #108]	; 0x6c
 8001e02:	f8df a284 	ldr.w	sl, [pc, #644]	; 8002088 <_strtod_l+0x5a8>
 8001e06:	f04f 0900 	mov.w	r9, #0
 8001e0a:	e6a8      	b.n	8001b5e <_strtod_l+0x7e>
 8001e0c:	210a      	movs	r1, #10
 8001e0e:	fb01 3e0e 	mla	lr, r1, lr, r3
 8001e12:	f1ae 0e30 	sub.w	lr, lr, #48	; 0x30
 8001e16:	e7b8      	b.n	8001d8a <_strtod_l+0x2aa>
 8001e18:	46be      	mov	lr, r7
 8001e1a:	e7c8      	b.n	8001dae <_strtod_l+0x2ce>
 8001e1c:	2b69      	cmp	r3, #105	; 0x69
 8001e1e:	d0de      	beq.n	8001dde <_strtod_l+0x2fe>
 8001e20:	2b6e      	cmp	r3, #110	; 0x6e
 8001e22:	f47f aeba 	bne.w	8001b9a <_strtod_l+0xba>
 8001e26:	4994      	ldr	r1, [pc, #592]	; (8002078 <_strtod_l+0x598>)
 8001e28:	a81b      	add	r0, sp, #108	; 0x6c
 8001e2a:	f001 fdc1 	bl	80039b0 <__match>
 8001e2e:	2800      	cmp	r0, #0
 8001e30:	f43f aeb3 	beq.w	8001b9a <_strtod_l+0xba>
 8001e34:	9b1b      	ldr	r3, [sp, #108]	; 0x6c
 8001e36:	781b      	ldrb	r3, [r3, #0]
 8001e38:	2b28      	cmp	r3, #40	; 0x28
 8001e3a:	d10e      	bne.n	8001e5a <_strtod_l+0x37a>
 8001e3c:	aa1e      	add	r2, sp, #120	; 0x78
 8001e3e:	498f      	ldr	r1, [pc, #572]	; (800207c <_strtod_l+0x59c>)
 8001e40:	a81b      	add	r0, sp, #108	; 0x6c
 8001e42:	f001 fdc9 	bl	80039d8 <__hexnan>
 8001e46:	2805      	cmp	r0, #5
 8001e48:	d107      	bne.n	8001e5a <_strtod_l+0x37a>
 8001e4a:	9b1f      	ldr	r3, [sp, #124]	; 0x7c
 8001e4c:	f8dd 9078 	ldr.w	r9, [sp, #120]	; 0x78
 8001e50:	f043 4aff 	orr.w	sl, r3, #2139095040	; 0x7f800000
 8001e54:	f44a 0ae0 	orr.w	sl, sl, #7340032	; 0x700000
 8001e58:	e681      	b.n	8001b5e <_strtod_l+0x7e>
 8001e5a:	f8df a234 	ldr.w	sl, [pc, #564]	; 8002090 <_strtod_l+0x5b0>
 8001e5e:	e7d2      	b.n	8001e06 <_strtod_l+0x326>
 8001e60:	ebae 0302 	sub.w	r3, lr, r2
 8001e64:	9307      	str	r3, [sp, #28]
 8001e66:	9b04      	ldr	r3, [sp, #16]
 8001e68:	9806      	ldr	r0, [sp, #24]
 8001e6a:	2b00      	cmp	r3, #0
 8001e6c:	bf08      	it	eq
 8001e6e:	4623      	moveq	r3, r4
 8001e70:	2c10      	cmp	r4, #16
 8001e72:	9304      	str	r3, [sp, #16]
 8001e74:	46a0      	mov	r8, r4
 8001e76:	bfa8      	it	ge
 8001e78:	f04f 0810 	movge.w	r8, #16
 8001e7c:	f7fe fb62 	bl	8000544 <__aeabi_ui2d>
 8001e80:	2c09      	cmp	r4, #9
 8001e82:	4681      	mov	r9, r0
 8001e84:	468a      	mov	sl, r1
 8001e86:	dc13      	bgt.n	8001eb0 <_strtod_l+0x3d0>
 8001e88:	9b07      	ldr	r3, [sp, #28]
 8001e8a:	2b00      	cmp	r3, #0
 8001e8c:	f43f ae67 	beq.w	8001b5e <_strtod_l+0x7e>
 8001e90:	9b07      	ldr	r3, [sp, #28]
 8001e92:	dd7e      	ble.n	8001f92 <_strtod_l+0x4b2>
 8001e94:	2b16      	cmp	r3, #22
 8001e96:	dc65      	bgt.n	8001f64 <_strtod_l+0x484>
 8001e98:	4a79      	ldr	r2, [pc, #484]	; (8002080 <_strtod_l+0x5a0>)
 8001e9a:	eb02 0ec3 	add.w	lr, r2, r3, lsl #3
 8001e9e:	e9de 0100 	ldrd	r0, r1, [lr]
 8001ea2:	464a      	mov	r2, r9
 8001ea4:	4653      	mov	r3, sl
 8001ea6:	f7fe fbc7 	bl	8000638 <__aeabi_dmul>
 8001eaa:	4681      	mov	r9, r0
 8001eac:	468a      	mov	sl, r1
 8001eae:	e656      	b.n	8001b5e <_strtod_l+0x7e>
 8001eb0:	4b73      	ldr	r3, [pc, #460]	; (8002080 <_strtod_l+0x5a0>)
 8001eb2:	eb03 03c8 	add.w	r3, r3, r8, lsl #3
 8001eb6:	e953 2312 	ldrd	r2, r3, [r3, #-72]	; 0x48
 8001eba:	f7fe fbbd 	bl	8000638 <__aeabi_dmul>
 8001ebe:	4606      	mov	r6, r0
 8001ec0:	4628      	mov	r0, r5
 8001ec2:	460f      	mov	r7, r1
 8001ec4:	f7fe fb3e 	bl	8000544 <__aeabi_ui2d>
 8001ec8:	4602      	mov	r2, r0
 8001eca:	460b      	mov	r3, r1
 8001ecc:	4630      	mov	r0, r6
 8001ece:	4639      	mov	r1, r7
 8001ed0:	f7fe f9fc 	bl	80002cc <__adddf3>
 8001ed4:	2c0f      	cmp	r4, #15
 8001ed6:	4681      	mov	r9, r0
 8001ed8:	468a      	mov	sl, r1
 8001eda:	ddd5      	ble.n	8001e88 <_strtod_l+0x3a8>
 8001edc:	9b07      	ldr	r3, [sp, #28]
 8001ede:	eba4 0808 	sub.w	r8, r4, r8
 8001ee2:	4498      	add	r8, r3
 8001ee4:	f1b8 0f00 	cmp.w	r8, #0
 8001ee8:	f340 809a 	ble.w	8002020 <_strtod_l+0x540>
 8001eec:	f018 030f 	ands.w	r3, r8, #15
 8001ef0:	d00a      	beq.n	8001f08 <_strtod_l+0x428>
 8001ef2:	4963      	ldr	r1, [pc, #396]	; (8002080 <_strtod_l+0x5a0>)
 8001ef4:	eb01 01c3 	add.w	r1, r1, r3, lsl #3
 8001ef8:	464a      	mov	r2, r9
 8001efa:	4653      	mov	r3, sl
 8001efc:	e9d1 0100 	ldrd	r0, r1, [r1]
 8001f00:	f7fe fb9a 	bl	8000638 <__aeabi_dmul>
 8001f04:	4681      	mov	r9, r0
 8001f06:	468a      	mov	sl, r1
 8001f08:	f038 080f 	bics.w	r8, r8, #15
 8001f0c:	d077      	beq.n	8001ffe <_strtod_l+0x51e>
 8001f0e:	f5b8 7f9a 	cmp.w	r8, #308	; 0x134
 8001f12:	dd4b      	ble.n	8001fac <_strtod_l+0x4cc>
 8001f14:	f04f 0800 	mov.w	r8, #0
 8001f18:	f8cd 8010 	str.w	r8, [sp, #16]
 8001f1c:	f8cd 8020 	str.w	r8, [sp, #32]
 8001f20:	f8cd 8018 	str.w	r8, [sp, #24]
 8001f24:	2322      	movs	r3, #34	; 0x22
 8001f26:	f8df a160 	ldr.w	sl, [pc, #352]	; 8002088 <_strtod_l+0x5a8>
 8001f2a:	f8cb 3000 	str.w	r3, [fp]
 8001f2e:	f04f 0900 	mov.w	r9, #0
 8001f32:	9b08      	ldr	r3, [sp, #32]
 8001f34:	2b00      	cmp	r3, #0
 8001f36:	f43f ae12 	beq.w	8001b5e <_strtod_l+0x7e>
 8001f3a:	991c      	ldr	r1, [sp, #112]	; 0x70
 8001f3c:	4658      	mov	r0, fp
 8001f3e:	f001 fe48 	bl	8003bd2 <_Bfree>
 8001f42:	9906      	ldr	r1, [sp, #24]
 8001f44:	4658      	mov	r0, fp
 8001f46:	f001 fe44 	bl	8003bd2 <_Bfree>
 8001f4a:	9904      	ldr	r1, [sp, #16]
 8001f4c:	4658      	mov	r0, fp
 8001f4e:	f001 fe40 	bl	8003bd2 <_Bfree>
 8001f52:	9908      	ldr	r1, [sp, #32]
 8001f54:	4658      	mov	r0, fp
 8001f56:	f001 fe3c 	bl	8003bd2 <_Bfree>
 8001f5a:	4641      	mov	r1, r8
 8001f5c:	4658      	mov	r0, fp
 8001f5e:	f001 fe38 	bl	8003bd2 <_Bfree>
 8001f62:	e5fc      	b.n	8001b5e <_strtod_l+0x7e>
 8001f64:	9a07      	ldr	r2, [sp, #28]
 8001f66:	f1c4 0325 	rsb	r3, r4, #37	; 0x25
 8001f6a:	4293      	cmp	r3, r2
 8001f6c:	dbb6      	blt.n	8001edc <_strtod_l+0x3fc>
 8001f6e:	4d44      	ldr	r5, [pc, #272]	; (8002080 <_strtod_l+0x5a0>)
 8001f70:	f1c4 040f 	rsb	r4, r4, #15
 8001f74:	eb05 01c4 	add.w	r1, r5, r4, lsl #3
 8001f78:	464a      	mov	r2, r9
 8001f7a:	4653      	mov	r3, sl
 8001f7c:	e9d1 0100 	ldrd	r0, r1, [r1]
 8001f80:	f7fe fb5a 	bl	8000638 <__aeabi_dmul>
 8001f84:	9b07      	ldr	r3, [sp, #28]
 8001f86:	1b1c      	subs	r4, r3, r4
 8001f88:	eb05 05c4 	add.w	r5, r5, r4, lsl #3
 8001f8c:	e9d5 2300 	ldrd	r2, r3, [r5]
 8001f90:	e789      	b.n	8001ea6 <_strtod_l+0x3c6>
 8001f92:	f113 0f16 	cmn.w	r3, #22
 8001f96:	dba1      	blt.n	8001edc <_strtod_l+0x3fc>
 8001f98:	4a39      	ldr	r2, [pc, #228]	; (8002080 <_strtod_l+0x5a0>)
 8001f9a:	eba2 02c3 	sub.w	r2, r2, r3, lsl #3
 8001f9e:	e9d2 2300 	ldrd	r2, r3, [r2]
 8001fa2:	4648      	mov	r0, r9
 8001fa4:	4651      	mov	r1, sl
 8001fa6:	f7fe fc71 	bl	800088c <__aeabi_ddiv>
 8001faa:	e77e      	b.n	8001eaa <_strtod_l+0x3ca>
 8001fac:	2300      	movs	r3, #0
 8001fae:	4e35      	ldr	r6, [pc, #212]	; (8002084 <_strtod_l+0x5a4>)
 8001fb0:	ea4f 1828 	mov.w	r8, r8, asr #4
 8001fb4:	4648      	mov	r0, r9
 8001fb6:	4651      	mov	r1, sl
 8001fb8:	461d      	mov	r5, r3
 8001fba:	f1b8 0f01 	cmp.w	r8, #1
 8001fbe:	dc21      	bgt.n	8002004 <_strtod_l+0x524>
 8001fc0:	b10b      	cbz	r3, 8001fc6 <_strtod_l+0x4e6>
 8001fc2:	4681      	mov	r9, r0
 8001fc4:	468a      	mov	sl, r1
 8001fc6:	4b2f      	ldr	r3, [pc, #188]	; (8002084 <_strtod_l+0x5a4>)
 8001fc8:	f1aa 7a54 	sub.w	sl, sl, #55574528	; 0x3500000
 8001fcc:	eb03 05c5 	add.w	r5, r3, r5, lsl #3
 8001fd0:	464a      	mov	r2, r9
 8001fd2:	4653      	mov	r3, sl
 8001fd4:	e9d5 0100 	ldrd	r0, r1, [r5]
 8001fd8:	f7fe fb2e 	bl	8000638 <__aeabi_dmul>
 8001fdc:	4b2a      	ldr	r3, [pc, #168]	; (8002088 <_strtod_l+0x5a8>)
 8001fde:	460a      	mov	r2, r1
 8001fe0:	400b      	ands	r3, r1
 8001fe2:	492a      	ldr	r1, [pc, #168]	; (800208c <_strtod_l+0x5ac>)
 8001fe4:	428b      	cmp	r3, r1
 8001fe6:	4681      	mov	r9, r0
 8001fe8:	d894      	bhi.n	8001f14 <_strtod_l+0x434>
 8001fea:	f5a1 1180 	sub.w	r1, r1, #1048576	; 0x100000
 8001fee:	428b      	cmp	r3, r1
 8001ff0:	bf86      	itte	hi
 8001ff2:	f8df a0a0 	ldrhi.w	sl, [pc, #160]	; 8002094 <_strtod_l+0x5b4>
 8001ff6:	f04f 39ff 	movhi.w	r9, #4294967295
 8001ffa:	f102 7a54 	addls.w	sl, r2, #55574528	; 0x3500000
 8001ffe:	2300      	movs	r3, #0
 8002000:	9305      	str	r3, [sp, #20]
 8002002:	e07b      	b.n	80020fc <_strtod_l+0x61c>
 8002004:	f018 0f01 	tst.w	r8, #1
 8002008:	d006      	beq.n	8002018 <_strtod_l+0x538>
 800200a:	eb06 03c5 	add.w	r3, r6, r5, lsl #3
 800200e:	e9d3 2300 	ldrd	r2, r3, [r3]
 8002012:	f7fe fb11 	bl	8000638 <__aeabi_dmul>
 8002016:	2301      	movs	r3, #1
 8002018:	3501      	adds	r5, #1
 800201a:	ea4f 0868 	mov.w	r8, r8, asr #1
 800201e:	e7cc      	b.n	8001fba <_strtod_l+0x4da>
 8002020:	d0ed      	beq.n	8001ffe <_strtod_l+0x51e>
 8002022:	f1c8 0800 	rsb	r8, r8, #0
 8002026:	f018 020f 	ands.w	r2, r8, #15
 800202a:	d00a      	beq.n	8002042 <_strtod_l+0x562>
 800202c:	4b14      	ldr	r3, [pc, #80]	; (8002080 <_strtod_l+0x5a0>)
 800202e:	eb03 03c2 	add.w	r3, r3, r2, lsl #3
 8002032:	4648      	mov	r0, r9
 8002034:	4651      	mov	r1, sl
 8002036:	e9d3 2300 	ldrd	r2, r3, [r3]
 800203a:	f7fe fc27 	bl	800088c <__aeabi_ddiv>
 800203e:	4681      	mov	r9, r0
 8002040:	468a      	mov	sl, r1
 8002042:	ea5f 1828 	movs.w	r8, r8, asr #4
 8002046:	d0da      	beq.n	8001ffe <_strtod_l+0x51e>
 8002048:	f1b8 0f1f 	cmp.w	r8, #31
 800204c:	dd24      	ble.n	8002098 <_strtod_l+0x5b8>
 800204e:	f04f 0800 	mov.w	r8, #0
 8002052:	f8cd 8010 	str.w	r8, [sp, #16]
 8002056:	f8cd 8020 	str.w	r8, [sp, #32]
 800205a:	f8cd 8018 	str.w	r8, [sp, #24]
 800205e:	2322      	movs	r3, #34	; 0x22
 8002060:	f04f 0900 	mov.w	r9, #0
 8002064:	f04f 0a00 	mov.w	sl, #0
 8002068:	f8cb 3000 	str.w	r3, [fp]
 800206c:	e761      	b.n	8001f32 <_strtod_l+0x452>
 800206e:	bf00      	nop
 8002070:	0800487d 	.word	0x0800487d
 8002074:	0800490b 	.word	0x0800490b
 8002078:	08004885 	.word	0x08004885
 800207c:	080048c8 	.word	0x080048c8
 8002080:	080049b0 	.word	0x080049b0
 8002084:	08004988 	.word	0x08004988
 8002088:	7ff00000 	.word	0x7ff00000
 800208c:	7ca00000 	.word	0x7ca00000
 8002090:	fff80000 	.word	0xfff80000
 8002094:	7fefffff 	.word	0x7fefffff
 8002098:	f018 0310 	ands.w	r3, r8, #16
 800209c:	bf18      	it	ne
 800209e:	236a      	movne	r3, #106	; 0x6a
 80020a0:	4da2      	ldr	r5, [pc, #648]	; (800232c <_strtod_l+0x84c>)
 80020a2:	9305      	str	r3, [sp, #20]
 80020a4:	4648      	mov	r0, r9
 80020a6:	4651      	mov	r1, sl
 80020a8:	2300      	movs	r3, #0
 80020aa:	f1b8 0f00 	cmp.w	r8, #0
 80020ae:	f300 8110 	bgt.w	80022d2 <_strtod_l+0x7f2>
 80020b2:	b10b      	cbz	r3, 80020b8 <_strtod_l+0x5d8>
 80020b4:	4681      	mov	r9, r0
 80020b6:	468a      	mov	sl, r1
 80020b8:	9b05      	ldr	r3, [sp, #20]
 80020ba:	b1bb      	cbz	r3, 80020ec <_strtod_l+0x60c>
 80020bc:	f3ca 530a 	ubfx	r3, sl, #20, #11
 80020c0:	f1c3 036b 	rsb	r3, r3, #107	; 0x6b
 80020c4:	2b00      	cmp	r3, #0
 80020c6:	4651      	mov	r1, sl
 80020c8:	dd10      	ble.n	80020ec <_strtod_l+0x60c>
 80020ca:	2b1f      	cmp	r3, #31
 80020cc:	f340 810d 	ble.w	80022ea <_strtod_l+0x80a>
 80020d0:	2b34      	cmp	r3, #52	; 0x34
 80020d2:	bfde      	ittt	le
 80020d4:	3b20      	suble	r3, #32
 80020d6:	f04f 32ff 	movle.w	r2, #4294967295
 80020da:	fa02 f303 	lslle.w	r3, r2, r3
 80020de:	f04f 0900 	mov.w	r9, #0
 80020e2:	bfcc      	ite	gt
 80020e4:	f04f 7a5c 	movgt.w	sl, #57671680	; 0x3700000
 80020e8:	ea03 0a01 	andle.w	sl, r3, r1
 80020ec:	2200      	movs	r2, #0
 80020ee:	2300      	movs	r3, #0
 80020f0:	4648      	mov	r0, r9
 80020f2:	4651      	mov	r1, sl
 80020f4:	f7fe fd08 	bl	8000b08 <__aeabi_dcmpeq>
 80020f8:	2800      	cmp	r0, #0
 80020fa:	d1a8      	bne.n	800204e <_strtod_l+0x56e>
 80020fc:	9b06      	ldr	r3, [sp, #24]
 80020fe:	9300      	str	r3, [sp, #0]
 8002100:	9a04      	ldr	r2, [sp, #16]
 8002102:	9908      	ldr	r1, [sp, #32]
 8002104:	4623      	mov	r3, r4
 8002106:	4658      	mov	r0, fp
 8002108:	f001 fdb5 	bl	8003c76 <__s2b>
 800210c:	9008      	str	r0, [sp, #32]
 800210e:	2800      	cmp	r0, #0
 8002110:	f43f af00 	beq.w	8001f14 <_strtod_l+0x434>
 8002114:	9a07      	ldr	r2, [sp, #28]
 8002116:	9b07      	ldr	r3, [sp, #28]
 8002118:	2a00      	cmp	r2, #0
 800211a:	f1c3 0300 	rsb	r3, r3, #0
 800211e:	bfa8      	it	ge
 8002120:	2300      	movge	r3, #0
 8002122:	930e      	str	r3, [sp, #56]	; 0x38
 8002124:	f04f 0800 	mov.w	r8, #0
 8002128:	ea22 73e2 	bic.w	r3, r2, r2, asr #31
 800212c:	9316      	str	r3, [sp, #88]	; 0x58
 800212e:	f8cd 8010 	str.w	r8, [sp, #16]
 8002132:	9b08      	ldr	r3, [sp, #32]
 8002134:	4658      	mov	r0, fp
 8002136:	6859      	ldr	r1, [r3, #4]
 8002138:	f001 fd17 	bl	8003b6a <_Balloc>
 800213c:	9006      	str	r0, [sp, #24]
 800213e:	2800      	cmp	r0, #0
 8002140:	f43f aef0 	beq.w	8001f24 <_strtod_l+0x444>
 8002144:	9b08      	ldr	r3, [sp, #32]
 8002146:	691a      	ldr	r2, [r3, #16]
 8002148:	3202      	adds	r2, #2
 800214a:	f103 010c 	add.w	r1, r3, #12
 800214e:	0092      	lsls	r2, r2, #2
 8002150:	300c      	adds	r0, #12
 8002152:	f001 fcff 	bl	8003b54 <memcpy>
 8002156:	ab1e      	add	r3, sp, #120	; 0x78
 8002158:	9301      	str	r3, [sp, #4]
 800215a:	ab1d      	add	r3, sp, #116	; 0x74
 800215c:	9300      	str	r3, [sp, #0]
 800215e:	464a      	mov	r2, r9
 8002160:	4653      	mov	r3, sl
 8002162:	4658      	mov	r0, fp
 8002164:	e9cd 9a0a 	strd	r9, sl, [sp, #40]	; 0x28
 8002168:	f002 f840 	bl	80041ec <__d2b>
 800216c:	901c      	str	r0, [sp, #112]	; 0x70
 800216e:	2800      	cmp	r0, #0
 8002170:	f43f aed8 	beq.w	8001f24 <_strtod_l+0x444>
 8002174:	2101      	movs	r1, #1
 8002176:	4658      	mov	r0, fp
 8002178:	f001 fe09 	bl	8003d8e <__i2b>
 800217c:	9004      	str	r0, [sp, #16]
 800217e:	4603      	mov	r3, r0
 8002180:	2800      	cmp	r0, #0
 8002182:	f43f aecf 	beq.w	8001f24 <_strtod_l+0x444>
 8002186:	9d1d      	ldr	r5, [sp, #116]	; 0x74
 8002188:	9a1e      	ldr	r2, [sp, #120]	; 0x78
 800218a:	2d00      	cmp	r5, #0
 800218c:	bfab      	itete	ge
 800218e:	9b0e      	ldrge	r3, [sp, #56]	; 0x38
 8002190:	9b16      	ldrlt	r3, [sp, #88]	; 0x58
 8002192:	9c16      	ldrge	r4, [sp, #88]	; 0x58
 8002194:	9e0e      	ldrlt	r6, [sp, #56]	; 0x38
 8002196:	bfac      	ite	ge
 8002198:	18ee      	addge	r6, r5, r3
 800219a:	1b5c      	sublt	r4, r3, r5
 800219c:	9b05      	ldr	r3, [sp, #20]
 800219e:	1aed      	subs	r5, r5, r3
 80021a0:	4415      	add	r5, r2
 80021a2:	4b63      	ldr	r3, [pc, #396]	; (8002330 <_strtod_l+0x850>)
 80021a4:	3d01      	subs	r5, #1
 80021a6:	429d      	cmp	r5, r3
 80021a8:	f1c2 0236 	rsb	r2, r2, #54	; 0x36
 80021ac:	f280 80af 	bge.w	800230e <_strtod_l+0x82e>
 80021b0:	1b5b      	subs	r3, r3, r5
 80021b2:	2b1f      	cmp	r3, #31
 80021b4:	eba2 0203 	sub.w	r2, r2, r3
 80021b8:	f04f 0701 	mov.w	r7, #1
 80021bc:	f300 809c 	bgt.w	80022f8 <_strtod_l+0x818>
 80021c0:	fa07 f303 	lsl.w	r3, r7, r3
 80021c4:	930f      	str	r3, [sp, #60]	; 0x3c
 80021c6:	2500      	movs	r5, #0
 80021c8:	18b7      	adds	r7, r6, r2
 80021ca:	9b05      	ldr	r3, [sp, #20]
 80021cc:	42be      	cmp	r6, r7
 80021ce:	4414      	add	r4, r2
 80021d0:	441c      	add	r4, r3
 80021d2:	4633      	mov	r3, r6
 80021d4:	bfa8      	it	ge
 80021d6:	463b      	movge	r3, r7
 80021d8:	42a3      	cmp	r3, r4
 80021da:	bfa8      	it	ge
 80021dc:	4623      	movge	r3, r4
 80021de:	2b00      	cmp	r3, #0
 80021e0:	bfc2      	ittt	gt
 80021e2:	1aff      	subgt	r7, r7, r3
 80021e4:	1ae4      	subgt	r4, r4, r3
 80021e6:	1af6      	subgt	r6, r6, r3
 80021e8:	9b0e      	ldr	r3, [sp, #56]	; 0x38
 80021ea:	b1bb      	cbz	r3, 800221c <_strtod_l+0x73c>
 80021ec:	461a      	mov	r2, r3
 80021ee:	9904      	ldr	r1, [sp, #16]
 80021f0:	4658      	mov	r0, fp
 80021f2:	f001 fe6b 	bl	8003ecc <__pow5mult>
 80021f6:	9004      	str	r0, [sp, #16]
 80021f8:	2800      	cmp	r0, #0
 80021fa:	f43f ae93 	beq.w	8001f24 <_strtod_l+0x444>
 80021fe:	4601      	mov	r1, r0
 8002200:	9a1c      	ldr	r2, [sp, #112]	; 0x70
 8002202:	4658      	mov	r0, fp
 8002204:	f001 fdcc 	bl	8003da0 <__multiply>
 8002208:	9009      	str	r0, [sp, #36]	; 0x24
 800220a:	2800      	cmp	r0, #0
 800220c:	f43f ae8a 	beq.w	8001f24 <_strtod_l+0x444>
 8002210:	991c      	ldr	r1, [sp, #112]	; 0x70
 8002212:	4658      	mov	r0, fp
 8002214:	f001 fcdd 	bl	8003bd2 <_Bfree>
 8002218:	9b09      	ldr	r3, [sp, #36]	; 0x24
 800221a:	931c      	str	r3, [sp, #112]	; 0x70
 800221c:	2f00      	cmp	r7, #0
 800221e:	dc7a      	bgt.n	8002316 <_strtod_l+0x836>
 8002220:	9b07      	ldr	r3, [sp, #28]
 8002222:	2b00      	cmp	r3, #0
 8002224:	dd08      	ble.n	8002238 <_strtod_l+0x758>
 8002226:	9a16      	ldr	r2, [sp, #88]	; 0x58
 8002228:	9906      	ldr	r1, [sp, #24]
 800222a:	4658      	mov	r0, fp
 800222c:	f001 fe4e 	bl	8003ecc <__pow5mult>
 8002230:	9006      	str	r0, [sp, #24]
 8002232:	2800      	cmp	r0, #0
 8002234:	f43f ae76 	beq.w	8001f24 <_strtod_l+0x444>
 8002238:	2c00      	cmp	r4, #0
 800223a:	dd08      	ble.n	800224e <_strtod_l+0x76e>
 800223c:	4622      	mov	r2, r4
 800223e:	9906      	ldr	r1, [sp, #24]
 8002240:	4658      	mov	r0, fp
 8002242:	f001 fe91 	bl	8003f68 <__lshift>
 8002246:	9006      	str	r0, [sp, #24]
 8002248:	2800      	cmp	r0, #0
 800224a:	f43f ae6b 	beq.w	8001f24 <_strtod_l+0x444>
 800224e:	2e00      	cmp	r6, #0
 8002250:	dd08      	ble.n	8002264 <_strtod_l+0x784>
 8002252:	4632      	mov	r2, r6
 8002254:	9904      	ldr	r1, [sp, #16]
 8002256:	4658      	mov	r0, fp
 8002258:	f001 fe86 	bl	8003f68 <__lshift>
 800225c:	9004      	str	r0, [sp, #16]
 800225e:	2800      	cmp	r0, #0
 8002260:	f43f ae60 	beq.w	8001f24 <_strtod_l+0x444>
 8002264:	9a06      	ldr	r2, [sp, #24]
 8002266:	991c      	ldr	r1, [sp, #112]	; 0x70
 8002268:	4658      	mov	r0, fp
 800226a:	f001 feeb 	bl	8004044 <__mdiff>
 800226e:	4680      	mov	r8, r0
 8002270:	2800      	cmp	r0, #0
 8002272:	f43f ae57 	beq.w	8001f24 <_strtod_l+0x444>
 8002276:	2400      	movs	r4, #0
 8002278:	68c3      	ldr	r3, [r0, #12]
 800227a:	9904      	ldr	r1, [sp, #16]
 800227c:	60c4      	str	r4, [r0, #12]
 800227e:	930c      	str	r3, [sp, #48]	; 0x30
 8002280:	f001 fec6 	bl	8004010 <__mcmp>
 8002284:	42a0      	cmp	r0, r4
 8002286:	da55      	bge.n	8002334 <_strtod_l+0x854>
 8002288:	9b0c      	ldr	r3, [sp, #48]	; 0x30
 800228a:	b9f3      	cbnz	r3, 80022ca <_strtod_l+0x7ea>
 800228c:	f1b9 0f00 	cmp.w	r9, #0
 8002290:	d11b      	bne.n	80022ca <_strtod_l+0x7ea>
 8002292:	f3ca 0313 	ubfx	r3, sl, #0, #20
 8002296:	b9c3      	cbnz	r3, 80022ca <_strtod_l+0x7ea>
 8002298:	f02a 4300 	bic.w	r3, sl, #2147483648	; 0x80000000
 800229c:	0d1b      	lsrs	r3, r3, #20
 800229e:	051b      	lsls	r3, r3, #20
 80022a0:	f1b3 6fd6 	cmp.w	r3, #112197632	; 0x6b00000
 80022a4:	d911      	bls.n	80022ca <_strtod_l+0x7ea>
 80022a6:	f8d8 3014 	ldr.w	r3, [r8, #20]
 80022aa:	b91b      	cbnz	r3, 80022b4 <_strtod_l+0x7d4>
 80022ac:	f8d8 3010 	ldr.w	r3, [r8, #16]
 80022b0:	2b01      	cmp	r3, #1
 80022b2:	dd0a      	ble.n	80022ca <_strtod_l+0x7ea>
 80022b4:	4641      	mov	r1, r8
 80022b6:	2201      	movs	r2, #1
 80022b8:	4658      	mov	r0, fp
 80022ba:	f001 fe55 	bl	8003f68 <__lshift>
 80022be:	9904      	ldr	r1, [sp, #16]
 80022c0:	4680      	mov	r8, r0
 80022c2:	f001 fea5 	bl	8004010 <__mcmp>
 80022c6:	2800      	cmp	r0, #0
 80022c8:	dc69      	bgt.n	800239e <_strtod_l+0x8be>
 80022ca:	9b05      	ldr	r3, [sp, #20]
 80022cc:	2b00      	cmp	r3, #0
 80022ce:	d173      	bne.n	80023b8 <_strtod_l+0x8d8>
 80022d0:	e633      	b.n	8001f3a <_strtod_l+0x45a>
 80022d2:	f018 0f01 	tst.w	r8, #1
 80022d6:	d004      	beq.n	80022e2 <_strtod_l+0x802>
 80022d8:	e9d5 2300 	ldrd	r2, r3, [r5]
 80022dc:	f7fe f9ac 	bl	8000638 <__aeabi_dmul>
 80022e0:	2301      	movs	r3, #1
 80022e2:	ea4f 0868 	mov.w	r8, r8, asr #1
 80022e6:	3508      	adds	r5, #8
 80022e8:	e6df      	b.n	80020aa <_strtod_l+0x5ca>
 80022ea:	f04f 32ff 	mov.w	r2, #4294967295
 80022ee:	fa02 f303 	lsl.w	r3, r2, r3
 80022f2:	ea03 0909 	and.w	r9, r3, r9
 80022f6:	e6f9      	b.n	80020ec <_strtod_l+0x60c>
 80022f8:	f1c5 457f 	rsb	r5, r5, #4278190080	; 0xff000000
 80022fc:	f505 057f 	add.w	r5, r5, #16711680	; 0xff0000
 8002300:	f505 457b 	add.w	r5, r5, #64256	; 0xfb00
 8002304:	35e2      	adds	r5, #226	; 0xe2
 8002306:	fa07 f505 	lsl.w	r5, r7, r5
 800230a:	970f      	str	r7, [sp, #60]	; 0x3c
 800230c:	e75c      	b.n	80021c8 <_strtod_l+0x6e8>
 800230e:	2301      	movs	r3, #1
 8002310:	2500      	movs	r5, #0
 8002312:	930f      	str	r3, [sp, #60]	; 0x3c
 8002314:	e758      	b.n	80021c8 <_strtod_l+0x6e8>
 8002316:	463a      	mov	r2, r7
 8002318:	991c      	ldr	r1, [sp, #112]	; 0x70
 800231a:	4658      	mov	r0, fp
 800231c:	f001 fe24 	bl	8003f68 <__lshift>
 8002320:	901c      	str	r0, [sp, #112]	; 0x70
 8002322:	2800      	cmp	r0, #0
 8002324:	f47f af7c 	bne.w	8002220 <_strtod_l+0x740>
 8002328:	e5fc      	b.n	8001f24 <_strtod_l+0x444>
 800232a:	bf00      	nop
 800232c:	080048e0 	.word	0x080048e0
 8002330:	fffffc02 	.word	0xfffffc02
 8002334:	f8cd a024 	str.w	sl, [sp, #36]	; 0x24
 8002338:	f040 8089 	bne.w	800244e <_strtod_l+0x96e>
 800233c:	9a0c      	ldr	r2, [sp, #48]	; 0x30
 800233e:	f3ca 0313 	ubfx	r3, sl, #0, #20
 8002342:	b342      	cbz	r2, 8002396 <_strtod_l+0x8b6>
 8002344:	4ab0      	ldr	r2, [pc, #704]	; (8002608 <_strtod_l+0xb28>)
 8002346:	4293      	cmp	r3, r2
 8002348:	d156      	bne.n	80023f8 <_strtod_l+0x918>
 800234a:	9b05      	ldr	r3, [sp, #20]
 800234c:	4648      	mov	r0, r9
 800234e:	b1eb      	cbz	r3, 800238c <_strtod_l+0x8ac>
 8002350:	4aae      	ldr	r2, [pc, #696]	; (800260c <_strtod_l+0xb2c>)
 8002352:	4653      	mov	r3, sl
 8002354:	401a      	ands	r2, r3
 8002356:	f1b2 6fd4 	cmp.w	r2, #111149056	; 0x6a00000
 800235a:	f04f 31ff 	mov.w	r1, #4294967295
 800235e:	d818      	bhi.n	8002392 <_strtod_l+0x8b2>
 8002360:	0d12      	lsrs	r2, r2, #20
 8002362:	f1c2 036b 	rsb	r3, r2, #107	; 0x6b
 8002366:	fa01 f303 	lsl.w	r3, r1, r3
 800236a:	4298      	cmp	r0, r3
 800236c:	d144      	bne.n	80023f8 <_strtod_l+0x918>
 800236e:	4ba8      	ldr	r3, [pc, #672]	; (8002610 <_strtod_l+0xb30>)
 8002370:	9a09      	ldr	r2, [sp, #36]	; 0x24
 8002372:	429a      	cmp	r2, r3
 8002374:	d102      	bne.n	800237c <_strtod_l+0x89c>
 8002376:	3001      	adds	r0, #1
 8002378:	f43f add4 	beq.w	8001f24 <_strtod_l+0x444>
 800237c:	4ba3      	ldr	r3, [pc, #652]	; (800260c <_strtod_l+0xb2c>)
 800237e:	9a09      	ldr	r2, [sp, #36]	; 0x24
 8002380:	401a      	ands	r2, r3
 8002382:	f502 1a80 	add.w	sl, r2, #1048576	; 0x100000
 8002386:	f04f 0900 	mov.w	r9, #0
 800238a:	e79e      	b.n	80022ca <_strtod_l+0x7ea>
 800238c:	f04f 33ff 	mov.w	r3, #4294967295
 8002390:	e7eb      	b.n	800236a <_strtod_l+0x88a>
 8002392:	460b      	mov	r3, r1
 8002394:	e7e9      	b.n	800236a <_strtod_l+0x88a>
 8002396:	bb7b      	cbnz	r3, 80023f8 <_strtod_l+0x918>
 8002398:	f1b9 0f00 	cmp.w	r9, #0
 800239c:	d12c      	bne.n	80023f8 <_strtod_l+0x918>
 800239e:	9905      	ldr	r1, [sp, #20]
 80023a0:	4a9a      	ldr	r2, [pc, #616]	; (800260c <_strtod_l+0xb2c>)
 80023a2:	4653      	mov	r3, sl
 80023a4:	b1f1      	cbz	r1, 80023e4 <_strtod_l+0x904>
 80023a6:	ea02 010a 	and.w	r1, r2, sl
 80023aa:	f1b1 6fd6 	cmp.w	r1, #112197632	; 0x6b00000
 80023ae:	dc19      	bgt.n	80023e4 <_strtod_l+0x904>
 80023b0:	f1b1 7f5c 	cmp.w	r1, #57671680	; 0x3700000
 80023b4:	f77f ae53 	ble.w	800205e <_strtod_l+0x57e>
 80023b8:	4a96      	ldr	r2, [pc, #600]	; (8002614 <_strtod_l+0xb34>)
 80023ba:	2300      	movs	r3, #0
 80023bc:	e9cd 3214 	strd	r3, r2, [sp, #80]	; 0x50
 80023c0:	4648      	mov	r0, r9
 80023c2:	4651      	mov	r1, sl
 80023c4:	e9dd 2314 	ldrd	r2, r3, [sp, #80]	; 0x50
 80023c8:	f7fe f936 	bl	8000638 <__aeabi_dmul>
 80023cc:	4681      	mov	r9, r0
 80023ce:	468a      	mov	sl, r1
 80023d0:	2900      	cmp	r1, #0
 80023d2:	f47f adb2 	bne.w	8001f3a <_strtod_l+0x45a>
 80023d6:	2800      	cmp	r0, #0
 80023d8:	f47f adaf 	bne.w	8001f3a <_strtod_l+0x45a>
 80023dc:	2322      	movs	r3, #34	; 0x22
 80023de:	f8cb 3000 	str.w	r3, [fp]
 80023e2:	e5aa      	b.n	8001f3a <_strtod_l+0x45a>
 80023e4:	4013      	ands	r3, r2
 80023e6:	f5a3 1380 	sub.w	r3, r3, #1048576	; 0x100000
 80023ea:	ea6f 5a13 	mvn.w	sl, r3, lsr #20
 80023ee:	ea6f 5a0a 	mvn.w	sl, sl, lsl #20
 80023f2:	f04f 39ff 	mov.w	r9, #4294967295
 80023f6:	e768      	b.n	80022ca <_strtod_l+0x7ea>
 80023f8:	b19d      	cbz	r5, 8002422 <_strtod_l+0x942>
 80023fa:	9b09      	ldr	r3, [sp, #36]	; 0x24
 80023fc:	421d      	tst	r5, r3
 80023fe:	f43f af64 	beq.w	80022ca <_strtod_l+0x7ea>
 8002402:	9b0c      	ldr	r3, [sp, #48]	; 0x30
 8002404:	9a05      	ldr	r2, [sp, #20]
 8002406:	4648      	mov	r0, r9
 8002408:	4651      	mov	r1, sl
 800240a:	b173      	cbz	r3, 800242a <_strtod_l+0x94a>
 800240c:	f7ff fb46 	bl	8001a9c <sulp>
 8002410:	4602      	mov	r2, r0
 8002412:	460b      	mov	r3, r1
 8002414:	e9dd 010a 	ldrd	r0, r1, [sp, #40]	; 0x28
 8002418:	f7fd ff58 	bl	80002cc <__adddf3>
 800241c:	4681      	mov	r9, r0
 800241e:	468a      	mov	sl, r1
 8002420:	e753      	b.n	80022ca <_strtod_l+0x7ea>
 8002422:	9b0f      	ldr	r3, [sp, #60]	; 0x3c
 8002424:	ea13 0f09 	tst.w	r3, r9
 8002428:	e7e9      	b.n	80023fe <_strtod_l+0x91e>
 800242a:	f7ff fb37 	bl	8001a9c <sulp>
 800242e:	4602      	mov	r2, r0
 8002430:	460b      	mov	r3, r1
 8002432:	e9dd 010a 	ldrd	r0, r1, [sp, #40]	; 0x28
 8002436:	f7fd ff47 	bl	80002c8 <__aeabi_dsub>
 800243a:	2200      	movs	r2, #0
 800243c:	2300      	movs	r3, #0
 800243e:	4681      	mov	r9, r0
 8002440:	468a      	mov	sl, r1
 8002442:	f7fe fb61 	bl	8000b08 <__aeabi_dcmpeq>
 8002446:	2800      	cmp	r0, #0
 8002448:	f47f ae09 	bne.w	800205e <_strtod_l+0x57e>
 800244c:	e73d      	b.n	80022ca <_strtod_l+0x7ea>
 800244e:	9904      	ldr	r1, [sp, #16]
 8002450:	4640      	mov	r0, r8
 8002452:	f001 ff1a 	bl	800428a <__ratio>
 8002456:	2200      	movs	r2, #0
 8002458:	f04f 4380 	mov.w	r3, #1073741824	; 0x40000000
 800245c:	4606      	mov	r6, r0
 800245e:	460f      	mov	r7, r1
 8002460:	f7fe fb66 	bl	8000b30 <__aeabi_dcmple>
 8002464:	2800      	cmp	r0, #0
 8002466:	d075      	beq.n	8002554 <_strtod_l+0xa74>
 8002468:	9b0c      	ldr	r3, [sp, #48]	; 0x30
 800246a:	2b00      	cmp	r3, #0
 800246c:	d047      	beq.n	80024fe <_strtod_l+0xa1e>
 800246e:	4f6a      	ldr	r7, [pc, #424]	; (8002618 <_strtod_l+0xb38>)
 8002470:	2600      	movs	r6, #0
 8002472:	4d69      	ldr	r5, [pc, #420]	; (8002618 <_strtod_l+0xb38>)
 8002474:	9b09      	ldr	r3, [sp, #36]	; 0x24
 8002476:	f023 4300 	bic.w	r3, r3, #2147483648	; 0x80000000
 800247a:	0d1b      	lsrs	r3, r3, #20
 800247c:	051b      	lsls	r3, r3, #20
 800247e:	930f      	str	r3, [sp, #60]	; 0x3c
 8002480:	9a0f      	ldr	r2, [sp, #60]	; 0x3c
 8002482:	4b66      	ldr	r3, [pc, #408]	; (800261c <_strtod_l+0xb3c>)
 8002484:	429a      	cmp	r2, r3
 8002486:	f040 80d1 	bne.w	800262c <_strtod_l+0xb4c>
 800248a:	e9dd 230a 	ldrd	r2, r3, [sp, #40]	; 0x28
 800248e:	e9cd 2314 	strd	r2, r3, [sp, #80]	; 0x50
 8002492:	9b09      	ldr	r3, [sp, #36]	; 0x24
 8002494:	f1a3 7a54 	sub.w	sl, r3, #55574528	; 0x3500000
 8002498:	4648      	mov	r0, r9
 800249a:	4651      	mov	r1, sl
 800249c:	f001 fe30 	bl	8004100 <__ulp>
 80024a0:	4602      	mov	r2, r0
 80024a2:	460b      	mov	r3, r1
 80024a4:	4630      	mov	r0, r6
 80024a6:	4639      	mov	r1, r7
 80024a8:	f7fe f8c6 	bl	8000638 <__aeabi_dmul>
 80024ac:	464a      	mov	r2, r9
 80024ae:	4653      	mov	r3, sl
 80024b0:	f7fd ff0c 	bl	80002cc <__adddf3>
 80024b4:	460b      	mov	r3, r1
 80024b6:	4955      	ldr	r1, [pc, #340]	; (800260c <_strtod_l+0xb2c>)
 80024b8:	4a59      	ldr	r2, [pc, #356]	; (8002620 <_strtod_l+0xb40>)
 80024ba:	4019      	ands	r1, r3
 80024bc:	4291      	cmp	r1, r2
 80024be:	4681      	mov	r9, r0
 80024c0:	d95e      	bls.n	8002580 <_strtod_l+0xaa0>
 80024c2:	9b0b      	ldr	r3, [sp, #44]	; 0x2c
 80024c4:	f102 7254 	add.w	r2, r2, #55574528	; 0x3500000
 80024c8:	4293      	cmp	r3, r2
 80024ca:	d103      	bne.n	80024d4 <_strtod_l+0x9f4>
 80024cc:	9b0a      	ldr	r3, [sp, #40]	; 0x28
 80024ce:	3301      	adds	r3, #1
 80024d0:	f43f ad28 	beq.w	8001f24 <_strtod_l+0x444>
 80024d4:	f8df a138 	ldr.w	sl, [pc, #312]	; 8002610 <_strtod_l+0xb30>
 80024d8:	f04f 39ff 	mov.w	r9, #4294967295
 80024dc:	991c      	ldr	r1, [sp, #112]	; 0x70
 80024de:	4658      	mov	r0, fp
 80024e0:	f001 fb77 	bl	8003bd2 <_Bfree>
 80024e4:	9906      	ldr	r1, [sp, #24]
 80024e6:	4658      	mov	r0, fp
 80024e8:	f001 fb73 	bl	8003bd2 <_Bfree>
 80024ec:	9904      	ldr	r1, [sp, #16]
 80024ee:	4658      	mov	r0, fp
 80024f0:	f001 fb6f 	bl	8003bd2 <_Bfree>
 80024f4:	4641      	mov	r1, r8
 80024f6:	4658      	mov	r0, fp
 80024f8:	f001 fb6b 	bl	8003bd2 <_Bfree>
 80024fc:	e619      	b.n	8002132 <_strtod_l+0x652>
 80024fe:	f1b9 0f00 	cmp.w	r9, #0
 8002502:	d119      	bne.n	8002538 <_strtod_l+0xa58>
 8002504:	9b09      	ldr	r3, [sp, #36]	; 0x24
 8002506:	f3c3 0313 	ubfx	r3, r3, #0, #20
 800250a:	b9e3      	cbnz	r3, 8002546 <_strtod_l+0xa66>
 800250c:	2200      	movs	r2, #0
 800250e:	4b42      	ldr	r3, [pc, #264]	; (8002618 <_strtod_l+0xb38>)
 8002510:	4630      	mov	r0, r6
 8002512:	4639      	mov	r1, r7
 8002514:	f7fe fb02 	bl	8000b1c <__aeabi_dcmplt>
 8002518:	b9c8      	cbnz	r0, 800254e <_strtod_l+0xa6e>
 800251a:	2200      	movs	r2, #0
 800251c:	4b41      	ldr	r3, [pc, #260]	; (8002624 <_strtod_l+0xb44>)
 800251e:	4630      	mov	r0, r6
 8002520:	4639      	mov	r1, r7
 8002522:	f7fe f889 	bl	8000638 <__aeabi_dmul>
 8002526:	4604      	mov	r4, r0
 8002528:	460d      	mov	r5, r1
 800252a:	f105 4300 	add.w	r3, r5, #2147483648	; 0x80000000
 800252e:	9418      	str	r4, [sp, #96]	; 0x60
 8002530:	9319      	str	r3, [sp, #100]	; 0x64
 8002532:	e9dd 6718 	ldrd	r6, r7, [sp, #96]	; 0x60
 8002536:	e79d      	b.n	8002474 <_strtod_l+0x994>
 8002538:	f1b9 0f01 	cmp.w	r9, #1
 800253c:	d103      	bne.n	8002546 <_strtod_l+0xa66>
 800253e:	9b09      	ldr	r3, [sp, #36]	; 0x24
 8002540:	2b00      	cmp	r3, #0
 8002542:	f43f ad8c 	beq.w	800205e <_strtod_l+0x57e>
 8002546:	2600      	movs	r6, #0
 8002548:	4f37      	ldr	r7, [pc, #220]	; (8002628 <_strtod_l+0xb48>)
 800254a:	2400      	movs	r4, #0
 800254c:	e791      	b.n	8002472 <_strtod_l+0x992>
 800254e:	9c0c      	ldr	r4, [sp, #48]	; 0x30
 8002550:	4d34      	ldr	r5, [pc, #208]	; (8002624 <_strtod_l+0xb44>)
 8002552:	e7ea      	b.n	800252a <_strtod_l+0xa4a>
 8002554:	4b33      	ldr	r3, [pc, #204]	; (8002624 <_strtod_l+0xb44>)
 8002556:	2200      	movs	r2, #0
 8002558:	4630      	mov	r0, r6
 800255a:	4639      	mov	r1, r7
 800255c:	f7fe f86c 	bl	8000638 <__aeabi_dmul>
 8002560:	9b0c      	ldr	r3, [sp, #48]	; 0x30
 8002562:	4604      	mov	r4, r0
 8002564:	460d      	mov	r5, r1
 8002566:	b933      	cbnz	r3, 8002576 <_strtod_l+0xa96>
 8002568:	f101 4300 	add.w	r3, r1, #2147483648	; 0x80000000
 800256c:	9010      	str	r0, [sp, #64]	; 0x40
 800256e:	9311      	str	r3, [sp, #68]	; 0x44
 8002570:	e9dd 6710 	ldrd	r6, r7, [sp, #64]	; 0x40
 8002574:	e77e      	b.n	8002474 <_strtod_l+0x994>
 8002576:	4602      	mov	r2, r0
 8002578:	460b      	mov	r3, r1
 800257a:	e9cd 2310 	strd	r2, r3, [sp, #64]	; 0x40
 800257e:	e7f7      	b.n	8002570 <_strtod_l+0xa90>
 8002580:	f103 7a54 	add.w	sl, r3, #55574528	; 0x3500000
 8002584:	9b05      	ldr	r3, [sp, #20]
 8002586:	2b00      	cmp	r3, #0
 8002588:	d1a8      	bne.n	80024dc <_strtod_l+0x9fc>
 800258a:	f02a 4300 	bic.w	r3, sl, #2147483648	; 0x80000000
 800258e:	0d1b      	lsrs	r3, r3, #20
 8002590:	9a0f      	ldr	r2, [sp, #60]	; 0x3c
 8002592:	051b      	lsls	r3, r3, #20
 8002594:	429a      	cmp	r2, r3
 8002596:	4656      	mov	r6, sl
 8002598:	d1a0      	bne.n	80024dc <_strtod_l+0x9fc>
 800259a:	4629      	mov	r1, r5
 800259c:	4620      	mov	r0, r4
 800259e:	f7fe fafb 	bl	8000b98 <__aeabi_d2iz>
 80025a2:	f7fd ffdf 	bl	8000564 <__aeabi_i2d>
 80025a6:	460b      	mov	r3, r1
 80025a8:	4602      	mov	r2, r0
 80025aa:	4629      	mov	r1, r5
 80025ac:	4620      	mov	r0, r4
 80025ae:	f7fd fe8b 	bl	80002c8 <__aeabi_dsub>
 80025b2:	9b0c      	ldr	r3, [sp, #48]	; 0x30
 80025b4:	4604      	mov	r4, r0
 80025b6:	460d      	mov	r5, r1
 80025b8:	b933      	cbnz	r3, 80025c8 <_strtod_l+0xae8>
 80025ba:	f1b9 0f00 	cmp.w	r9, #0
 80025be:	d103      	bne.n	80025c8 <_strtod_l+0xae8>
 80025c0:	f3ca 0613 	ubfx	r6, sl, #0, #20
 80025c4:	2e00      	cmp	r6, #0
 80025c6:	d06c      	beq.n	80026a2 <_strtod_l+0xbc2>
 80025c8:	a30b      	add	r3, pc, #44	; (adr r3, 80025f8 <_strtod_l+0xb18>)
 80025ca:	e9d3 2300 	ldrd	r2, r3, [r3]
 80025ce:	4620      	mov	r0, r4
 80025d0:	4629      	mov	r1, r5
 80025d2:	f7fe faa3 	bl	8000b1c <__aeabi_dcmplt>
 80025d6:	2800      	cmp	r0, #0
 80025d8:	f47f acaf 	bne.w	8001f3a <_strtod_l+0x45a>
 80025dc:	a308      	add	r3, pc, #32	; (adr r3, 8002600 <_strtod_l+0xb20>)
 80025de:	e9d3 2300 	ldrd	r2, r3, [r3]
 80025e2:	4620      	mov	r0, r4
 80025e4:	4629      	mov	r1, r5
 80025e6:	f7fe fab7 	bl	8000b58 <__aeabi_dcmpgt>
 80025ea:	2800      	cmp	r0, #0
 80025ec:	f43f af76 	beq.w	80024dc <_strtod_l+0x9fc>
 80025f0:	e4a3      	b.n	8001f3a <_strtod_l+0x45a>
 80025f2:	bf00      	nop
 80025f4:	f3af 8000 	nop.w
 80025f8:	94a03595 	.word	0x94a03595
 80025fc:	3fdfffff 	.word	0x3fdfffff
 8002600:	35afe535 	.word	0x35afe535
 8002604:	3fe00000 	.word	0x3fe00000
 8002608:	000fffff 	.word	0x000fffff
 800260c:	7ff00000 	.word	0x7ff00000
 8002610:	7fefffff 	.word	0x7fefffff
 8002614:	39500000 	.word	0x39500000
 8002618:	3ff00000 	.word	0x3ff00000
 800261c:	7fe00000 	.word	0x7fe00000
 8002620:	7c9fffff 	.word	0x7c9fffff
 8002624:	3fe00000 	.word	0x3fe00000
 8002628:	bff00000 	.word	0xbff00000
 800262c:	9b05      	ldr	r3, [sp, #20]
 800262e:	b313      	cbz	r3, 8002676 <_strtod_l+0xb96>
 8002630:	9b0f      	ldr	r3, [sp, #60]	; 0x3c
 8002632:	f1b3 6fd4 	cmp.w	r3, #111149056	; 0x6a00000
 8002636:	d81e      	bhi.n	8002676 <_strtod_l+0xb96>
 8002638:	a325      	add	r3, pc, #148	; (adr r3, 80026d0 <_strtod_l+0xbf0>)
 800263a:	e9d3 2300 	ldrd	r2, r3, [r3]
 800263e:	4620      	mov	r0, r4
 8002640:	4629      	mov	r1, r5
 8002642:	f7fe fa75 	bl	8000b30 <__aeabi_dcmple>
 8002646:	b190      	cbz	r0, 800266e <_strtod_l+0xb8e>
 8002648:	4629      	mov	r1, r5
 800264a:	4620      	mov	r0, r4
 800264c:	f7fe facc 	bl	8000be8 <__aeabi_d2uiz>
 8002650:	2800      	cmp	r0, #0
 8002652:	bf08      	it	eq
 8002654:	2001      	moveq	r0, #1
 8002656:	f7fd ff75 	bl	8000544 <__aeabi_ui2d>
 800265a:	9b0c      	ldr	r3, [sp, #48]	; 0x30
 800265c:	4604      	mov	r4, r0
 800265e:	460d      	mov	r5, r1
 8002660:	b9d3      	cbnz	r3, 8002698 <_strtod_l+0xbb8>
 8002662:	f101 4300 	add.w	r3, r1, #2147483648	; 0x80000000
 8002666:	9012      	str	r0, [sp, #72]	; 0x48
 8002668:	9313      	str	r3, [sp, #76]	; 0x4c
 800266a:	e9dd 6712 	ldrd	r6, r7, [sp, #72]	; 0x48
 800266e:	9a0f      	ldr	r2, [sp, #60]	; 0x3c
 8002670:	f107 63d6 	add.w	r3, r7, #112197632	; 0x6b00000
 8002674:	1a9f      	subs	r7, r3, r2
 8002676:	e9dd 010a 	ldrd	r0, r1, [sp, #40]	; 0x28
 800267a:	f001 fd41 	bl	8004100 <__ulp>
 800267e:	4602      	mov	r2, r0
 8002680:	460b      	mov	r3, r1
 8002682:	4630      	mov	r0, r6
 8002684:	4639      	mov	r1, r7
 8002686:	f7fd ffd7 	bl	8000638 <__aeabi_dmul>
 800268a:	e9dd 230a 	ldrd	r2, r3, [sp, #40]	; 0x28
 800268e:	f7fd fe1d 	bl	80002cc <__adddf3>
 8002692:	4681      	mov	r9, r0
 8002694:	468a      	mov	sl, r1
 8002696:	e775      	b.n	8002584 <_strtod_l+0xaa4>
 8002698:	4602      	mov	r2, r0
 800269a:	460b      	mov	r3, r1
 800269c:	e9cd 2312 	strd	r2, r3, [sp, #72]	; 0x48
 80026a0:	e7e3      	b.n	800266a <_strtod_l+0xb8a>
 80026a2:	a30d      	add	r3, pc, #52	; (adr r3, 80026d8 <_strtod_l+0xbf8>)
 80026a4:	e9d3 2300 	ldrd	r2, r3, [r3]
 80026a8:	f7fe fa38 	bl	8000b1c <__aeabi_dcmplt>
 80026ac:	e79d      	b.n	80025ea <_strtod_l+0xb0a>
 80026ae:	2300      	movs	r3, #0
 80026b0:	930d      	str	r3, [sp, #52]	; 0x34
 80026b2:	9a17      	ldr	r2, [sp, #92]	; 0x5c
 80026b4:	9b1b      	ldr	r3, [sp, #108]	; 0x6c
 80026b6:	6013      	str	r3, [r2, #0]
 80026b8:	f7ff ba55 	b.w	8001b66 <_strtod_l+0x86>
 80026bc:	2b65      	cmp	r3, #101	; 0x65
 80026be:	f04f 0200 	mov.w	r2, #0
 80026c2:	f43f ab42 	beq.w	8001d4a <_strtod_l+0x26a>
 80026c6:	2101      	movs	r1, #1
 80026c8:	4614      	mov	r4, r2
 80026ca:	9105      	str	r1, [sp, #20]
 80026cc:	f7ff babf 	b.w	8001c4e <_strtod_l+0x16e>
 80026d0:	ffc00000 	.word	0xffc00000
 80026d4:	41dfffff 	.word	0x41dfffff
 80026d8:	94a03595 	.word	0x94a03595
 80026dc:	3fcfffff 	.word	0x3fcfffff

080026e0 <_strtod_r>:
 80026e0:	4b05      	ldr	r3, [pc, #20]	; (80026f8 <_strtod_r+0x18>)
 80026e2:	681b      	ldr	r3, [r3, #0]
 80026e4:	b410      	push	{r4}
 80026e6:	6a1b      	ldr	r3, [r3, #32]
 80026e8:	4c04      	ldr	r4, [pc, #16]	; (80026fc <_strtod_r+0x1c>)
 80026ea:	2b00      	cmp	r3, #0
 80026ec:	bf08      	it	eq
 80026ee:	4623      	moveq	r3, r4
 80026f0:	bc10      	pop	{r4}
 80026f2:	f7ff b9f5 	b.w	8001ae0 <_strtod_l>
 80026f6:	bf00      	nop
 80026f8:	20000000 	.word	0x20000000
 80026fc:	20000064 	.word	0x20000064

08002700 <_strtol_l.isra.0>:
 8002700:	e92d 47f0 	stmdb	sp!, {r4, r5, r6, r7, r8, r9, sl, lr}
 8002704:	4680      	mov	r8, r0
 8002706:	4689      	mov	r9, r1
 8002708:	4692      	mov	sl, r2
 800270a:	461e      	mov	r6, r3
 800270c:	460f      	mov	r7, r1
 800270e:	463d      	mov	r5, r7
 8002710:	9808      	ldr	r0, [sp, #32]
 8002712:	f815 4b01 	ldrb.w	r4, [r5], #1
 8002716:	f001 f9ef 	bl	8003af8 <__locale_ctype_ptr_l>
 800271a:	4420      	add	r0, r4
 800271c:	7843      	ldrb	r3, [r0, #1]
 800271e:	f013 0308 	ands.w	r3, r3, #8
 8002722:	d132      	bne.n	800278a <_strtol_l.isra.0+0x8a>
 8002724:	2c2d      	cmp	r4, #45	; 0x2d
 8002726:	d132      	bne.n	800278e <_strtol_l.isra.0+0x8e>
 8002728:	787c      	ldrb	r4, [r7, #1]
 800272a:	1cbd      	adds	r5, r7, #2
 800272c:	2201      	movs	r2, #1
 800272e:	2e00      	cmp	r6, #0
 8002730:	d05d      	beq.n	80027ee <_strtol_l.isra.0+0xee>
 8002732:	2e10      	cmp	r6, #16
 8002734:	d109      	bne.n	800274a <_strtol_l.isra.0+0x4a>
 8002736:	2c30      	cmp	r4, #48	; 0x30
 8002738:	d107      	bne.n	800274a <_strtol_l.isra.0+0x4a>
 800273a:	782b      	ldrb	r3, [r5, #0]
 800273c:	f003 03df 	and.w	r3, r3, #223	; 0xdf
 8002740:	2b58      	cmp	r3, #88	; 0x58
 8002742:	d14f      	bne.n	80027e4 <_strtol_l.isra.0+0xe4>
 8002744:	786c      	ldrb	r4, [r5, #1]
 8002746:	2610      	movs	r6, #16
 8002748:	3502      	adds	r5, #2
 800274a:	2a00      	cmp	r2, #0
 800274c:	bf14      	ite	ne
 800274e:	f04f 4100 	movne.w	r1, #2147483648	; 0x80000000
 8002752:	f06f 4100 	mvneq.w	r1, #2147483648	; 0x80000000
 8002756:	2700      	movs	r7, #0
 8002758:	fbb1 fcf6 	udiv	ip, r1, r6
 800275c:	4638      	mov	r0, r7
 800275e:	fb06 1e1c 	mls	lr, r6, ip, r1
 8002762:	f1a4 0330 	sub.w	r3, r4, #48	; 0x30
 8002766:	2b09      	cmp	r3, #9
 8002768:	d817      	bhi.n	800279a <_strtol_l.isra.0+0x9a>
 800276a:	461c      	mov	r4, r3
 800276c:	42a6      	cmp	r6, r4
 800276e:	dd23      	ble.n	80027b8 <_strtol_l.isra.0+0xb8>
 8002770:	1c7b      	adds	r3, r7, #1
 8002772:	d007      	beq.n	8002784 <_strtol_l.isra.0+0x84>
 8002774:	4584      	cmp	ip, r0
 8002776:	d31c      	bcc.n	80027b2 <_strtol_l.isra.0+0xb2>
 8002778:	d101      	bne.n	800277e <_strtol_l.isra.0+0x7e>
 800277a:	45a6      	cmp	lr, r4
 800277c:	db19      	blt.n	80027b2 <_strtol_l.isra.0+0xb2>
 800277e:	fb00 4006 	mla	r0, r0, r6, r4
 8002782:	2701      	movs	r7, #1
 8002784:	f815 4b01 	ldrb.w	r4, [r5], #1
 8002788:	e7eb      	b.n	8002762 <_strtol_l.isra.0+0x62>
 800278a:	462f      	mov	r7, r5
 800278c:	e7bf      	b.n	800270e <_strtol_l.isra.0+0xe>
 800278e:	2c2b      	cmp	r4, #43	; 0x2b
 8002790:	bf04      	itt	eq
 8002792:	1cbd      	addeq	r5, r7, #2
 8002794:	787c      	ldrbeq	r4, [r7, #1]
 8002796:	461a      	mov	r2, r3
 8002798:	e7c9      	b.n	800272e <_strtol_l.isra.0+0x2e>
 800279a:	f1a4 0341 	sub.w	r3, r4, #65	; 0x41
 800279e:	2b19      	cmp	r3, #25
 80027a0:	d801      	bhi.n	80027a6 <_strtol_l.isra.0+0xa6>
 80027a2:	3c37      	subs	r4, #55	; 0x37
 80027a4:	e7e2      	b.n	800276c <_strtol_l.isra.0+0x6c>
 80027a6:	f1a4 0361 	sub.w	r3, r4, #97	; 0x61
 80027aa:	2b19      	cmp	r3, #25
 80027ac:	d804      	bhi.n	80027b8 <_strtol_l.isra.0+0xb8>
 80027ae:	3c57      	subs	r4, #87	; 0x57
 80027b0:	e7dc      	b.n	800276c <_strtol_l.isra.0+0x6c>
 80027b2:	f04f 37ff 	mov.w	r7, #4294967295
 80027b6:	e7e5      	b.n	8002784 <_strtol_l.isra.0+0x84>
 80027b8:	1c7b      	adds	r3, r7, #1
 80027ba:	d108      	bne.n	80027ce <_strtol_l.isra.0+0xce>
 80027bc:	2322      	movs	r3, #34	; 0x22
 80027be:	f8c8 3000 	str.w	r3, [r8]
 80027c2:	4608      	mov	r0, r1
 80027c4:	f1ba 0f00 	cmp.w	sl, #0
 80027c8:	d107      	bne.n	80027da <_strtol_l.isra.0+0xda>
 80027ca:	e8bd 87f0 	ldmia.w	sp!, {r4, r5, r6, r7, r8, r9, sl, pc}
 80027ce:	b102      	cbz	r2, 80027d2 <_strtol_l.isra.0+0xd2>
 80027d0:	4240      	negs	r0, r0
 80027d2:	f1ba 0f00 	cmp.w	sl, #0
 80027d6:	d0f8      	beq.n	80027ca <_strtol_l.isra.0+0xca>
 80027d8:	b10f      	cbz	r7, 80027de <_strtol_l.isra.0+0xde>
 80027da:	f105 39ff 	add.w	r9, r5, #4294967295
 80027de:	f8ca 9000 	str.w	r9, [sl]
 80027e2:	e7f2      	b.n	80027ca <_strtol_l.isra.0+0xca>
 80027e4:	2430      	movs	r4, #48	; 0x30
 80027e6:	2e00      	cmp	r6, #0
 80027e8:	d1af      	bne.n	800274a <_strtol_l.isra.0+0x4a>
 80027ea:	2608      	movs	r6, #8
 80027ec:	e7ad      	b.n	800274a <_strtol_l.isra.0+0x4a>
 80027ee:	2c30      	cmp	r4, #48	; 0x30
 80027f0:	d0a3      	beq.n	800273a <_strtol_l.isra.0+0x3a>
 80027f2:	260a      	movs	r6, #10
 80027f4:	e7a9      	b.n	800274a <_strtol_l.isra.0+0x4a>
	...

080027f8 <_strtol_r>:
 80027f8:	b537      	push	{r0, r1, r2, r4, r5, lr}
 80027fa:	4c06      	ldr	r4, [pc, #24]	; (8002814 <_strtol_r+0x1c>)
 80027fc:	4d06      	ldr	r5, [pc, #24]	; (8002818 <_strtol_r+0x20>)
 80027fe:	6824      	ldr	r4, [r4, #0]
 8002800:	6a24      	ldr	r4, [r4, #32]
 8002802:	2c00      	cmp	r4, #0
 8002804:	bf08      	it	eq
 8002806:	462c      	moveq	r4, r5
 8002808:	9400      	str	r4, [sp, #0]
 800280a:	f7ff ff79 	bl	8002700 <_strtol_l.isra.0>
 800280e:	b003      	add	sp, #12
 8002810:	bd30      	pop	{r4, r5, pc}
 8002812:	bf00      	nop
 8002814:	20000000 	.word	0x20000000
 8002818:	20000064 	.word	0x20000064

0800281c <quorem>:
 800281c:	e92d 4ff7 	stmdb	sp!, {r0, r1, r2, r4, r5, r6, r7, r8, r9, sl, fp, lr}
 8002820:	6903      	ldr	r3, [r0, #16]
 8002822:	690c      	ldr	r4, [r1, #16]
 8002824:	42a3      	cmp	r3, r4
 8002826:	4680      	mov	r8, r0
 8002828:	f2c0 8082 	blt.w	8002930 <quorem+0x114>
 800282c:	3c01      	subs	r4, #1
 800282e:	f101 0714 	add.w	r7, r1, #20
 8002832:	ea4f 0c84 	mov.w	ip, r4, lsl #2
 8002836:	f100 0614 	add.w	r6, r0, #20
 800283a:	f857 5024 	ldr.w	r5, [r7, r4, lsl #2]
 800283e:	f856 0024 	ldr.w	r0, [r6, r4, lsl #2]
 8002842:	eb06 030c 	add.w	r3, r6, ip
 8002846:	3501      	adds	r5, #1
 8002848:	eb07 090c 	add.w	r9, r7, ip
 800284c:	9301      	str	r3, [sp, #4]
 800284e:	fbb0 f5f5 	udiv	r5, r0, r5
 8002852:	b395      	cbz	r5, 80028ba <quorem+0x9e>
 8002854:	f04f 0a00 	mov.w	sl, #0
 8002858:	4638      	mov	r0, r7
 800285a:	46b6      	mov	lr, r6
 800285c:	46d3      	mov	fp, sl
 800285e:	f850 2b04 	ldr.w	r2, [r0], #4
 8002862:	b293      	uxth	r3, r2
 8002864:	fb05 a303 	mla	r3, r5, r3, sl
 8002868:	ea4f 4a13 	mov.w	sl, r3, lsr #16
 800286c:	b29b      	uxth	r3, r3
 800286e:	ebab 0303 	sub.w	r3, fp, r3
 8002872:	0c12      	lsrs	r2, r2, #16
 8002874:	f8de b000 	ldr.w	fp, [lr]
 8002878:	fb05 a202 	mla	r2, r5, r2, sl
 800287c:	fa13 f38b 	uxtah	r3, r3, fp
 8002880:	ea4f 4a12 	mov.w	sl, r2, lsr #16
 8002884:	fa1f fb82 	uxth.w	fp, r2
 8002888:	f8de 2000 	ldr.w	r2, [lr]
 800288c:	ebcb 4212 	rsb	r2, fp, r2, lsr #16
 8002890:	eb02 4223 	add.w	r2, r2, r3, asr #16
 8002894:	b29b      	uxth	r3, r3
 8002896:	ea43 4302 	orr.w	r3, r3, r2, lsl #16
 800289a:	4581      	cmp	r9, r0
 800289c:	ea4f 4b22 	mov.w	fp, r2, asr #16
 80028a0:	f84e 3b04 	str.w	r3, [lr], #4
 80028a4:	d2db      	bcs.n	800285e <quorem+0x42>
 80028a6:	f856 300c 	ldr.w	r3, [r6, ip]
 80028aa:	b933      	cbnz	r3, 80028ba <quorem+0x9e>
 80028ac:	9b01      	ldr	r3, [sp, #4]
 80028ae:	3b04      	subs	r3, #4
 80028b0:	429e      	cmp	r6, r3
 80028b2:	461a      	mov	r2, r3
 80028b4:	d330      	bcc.n	8002918 <quorem+0xfc>
 80028b6:	f8c8 4010 	str.w	r4, [r8, #16]
 80028ba:	4640      	mov	r0, r8
 80028bc:	f001 fba8 	bl	8004010 <__mcmp>
 80028c0:	2800      	cmp	r0, #0
 80028c2:	db25      	blt.n	8002910 <quorem+0xf4>
 80028c4:	3501      	adds	r5, #1
 80028c6:	4630      	mov	r0, r6
 80028c8:	f04f 0c00 	mov.w	ip, #0
 80028cc:	f857 2b04 	ldr.w	r2, [r7], #4
 80028d0:	f8d0 e000 	ldr.w	lr, [r0]
 80028d4:	b293      	uxth	r3, r2
 80028d6:	ebac 0303 	sub.w	r3, ip, r3
 80028da:	0c12      	lsrs	r2, r2, #16
 80028dc:	fa13 f38e 	uxtah	r3, r3, lr
 80028e0:	ebc2 421e 	rsb	r2, r2, lr, lsr #16
 80028e4:	eb02 4223 	add.w	r2, r2, r3, asr #16
 80028e8:	b29b      	uxth	r3, r3
 80028ea:	ea43 4302 	orr.w	r3, r3, r2, lsl #16
 80028ee:	45b9      	cmp	r9, r7
 80028f0:	ea4f 4c22 	mov.w	ip, r2, asr #16
 80028f4:	f840 3b04 	str.w	r3, [r0], #4
 80028f8:	d2e8      	bcs.n	80028cc <quorem+0xb0>
 80028fa:	f856 2024 	ldr.w	r2, [r6, r4, lsl #2]
 80028fe:	eb06 0384 	add.w	r3, r6, r4, lsl #2
 8002902:	b92a      	cbnz	r2, 8002910 <quorem+0xf4>
 8002904:	3b04      	subs	r3, #4
 8002906:	429e      	cmp	r6, r3
 8002908:	461a      	mov	r2, r3
 800290a:	d30b      	bcc.n	8002924 <quorem+0x108>
 800290c:	f8c8 4010 	str.w	r4, [r8, #16]
 8002910:	4628      	mov	r0, r5
 8002912:	b003      	add	sp, #12
 8002914:	e8bd 8ff0 	ldmia.w	sp!, {r4, r5, r6, r7, r8, r9, sl, fp, pc}
 8002918:	6812      	ldr	r2, [r2, #0]
 800291a:	3b04      	subs	r3, #4
 800291c:	2a00      	cmp	r2, #0
 800291e:	d1ca      	bne.n	80028b6 <quorem+0x9a>
 8002920:	3c01      	subs	r4, #1
 8002922:	e7c5      	b.n	80028b0 <quorem+0x94>
 8002924:	6812      	ldr	r2, [r2, #0]
 8002926:	3b04      	subs	r3, #4
 8002928:	2a00      	cmp	r2, #0
 800292a:	d1ef      	bne.n	800290c <quorem+0xf0>
 800292c:	3c01      	subs	r4, #1
 800292e:	e7ea      	b.n	8002906 <quorem+0xea>
 8002930:	2000      	movs	r0, #0
 8002932:	e7ee      	b.n	8002912 <quorem+0xf6>
 8002934:	0000      	movs	r0, r0
	...

08002938 <_dtoa_r>:
 8002938:	e92d 4ff0 	stmdb	sp!, {r4, r5, r6, r7, r8, r9, sl, fp, lr}
 800293c:	6a45      	ldr	r5, [r0, #36]	; 0x24
 800293e:	b095      	sub	sp, #84	; 0x54
 8002940:	4616      	mov	r6, r2
 8002942:	461f      	mov	r7, r3
 8002944:	4604      	mov	r4, r0
 8002946:	f8dd 8084 	ldr.w	r8, [sp, #132]	; 0x84
 800294a:	e9cd 6702 	strd	r6, r7, [sp, #8]
 800294e:	b93d      	cbnz	r5, 8002960 <_dtoa_r+0x28>
 8002950:	2010      	movs	r0, #16
 8002952:	f001 f8e5 	bl	8003b20 <malloc>
 8002956:	6260      	str	r0, [r4, #36]	; 0x24
 8002958:	e9c0 5501 	strd	r5, r5, [r0, #4]
 800295c:	6005      	str	r5, [r0, #0]
 800295e:	60c5      	str	r5, [r0, #12]
 8002960:	6a63      	ldr	r3, [r4, #36]	; 0x24
 8002962:	6819      	ldr	r1, [r3, #0]
 8002964:	b151      	cbz	r1, 800297c <_dtoa_r+0x44>
 8002966:	685a      	ldr	r2, [r3, #4]
 8002968:	604a      	str	r2, [r1, #4]
 800296a:	2301      	movs	r3, #1
 800296c:	4093      	lsls	r3, r2
 800296e:	608b      	str	r3, [r1, #8]
 8002970:	4620      	mov	r0, r4
 8002972:	f001 f92e 	bl	8003bd2 <_Bfree>
 8002976:	6a63      	ldr	r3, [r4, #36]	; 0x24
 8002978:	2200      	movs	r2, #0
 800297a:	601a      	str	r2, [r3, #0]
 800297c:	1e3b      	subs	r3, r7, #0
 800297e:	bfbb      	ittet	lt
 8002980:	f023 4300 	biclt.w	r3, r3, #2147483648	; 0x80000000
 8002984:	9303      	strlt	r3, [sp, #12]
 8002986:	2300      	movge	r3, #0
 8002988:	2201      	movlt	r2, #1
 800298a:	bfac      	ite	ge
 800298c:	f8c8 3000 	strge.w	r3, [r8]
 8002990:	f8c8 2000 	strlt.w	r2, [r8]
 8002994:	4bae      	ldr	r3, [pc, #696]	; (8002c50 <_dtoa_r+0x318>)
 8002996:	f8dd 800c 	ldr.w	r8, [sp, #12]
 800299a:	ea33 0308 	bics.w	r3, r3, r8
 800299e:	d11b      	bne.n	80029d8 <_dtoa_r+0xa0>
 80029a0:	9a20      	ldr	r2, [sp, #128]	; 0x80
 80029a2:	f242 730f 	movw	r3, #9999	; 0x270f
 80029a6:	6013      	str	r3, [r2, #0]
 80029a8:	9b02      	ldr	r3, [sp, #8]
 80029aa:	b923      	cbnz	r3, 80029b6 <_dtoa_r+0x7e>
 80029ac:	f3c8 0013 	ubfx	r0, r8, #0, #20
 80029b0:	2800      	cmp	r0, #0
 80029b2:	f000 854b 	beq.w	800344c <_dtoa_r+0xb14>
 80029b6:	9b22      	ldr	r3, [sp, #136]	; 0x88
 80029b8:	b953      	cbnz	r3, 80029d0 <_dtoa_r+0x98>
 80029ba:	4ba6      	ldr	r3, [pc, #664]	; (8002c54 <_dtoa_r+0x31c>)
 80029bc:	e021      	b.n	8002a02 <_dtoa_r+0xca>
 80029be:	4ba6      	ldr	r3, [pc, #664]	; (8002c58 <_dtoa_r+0x320>)
 80029c0:	9306      	str	r3, [sp, #24]
 80029c2:	3308      	adds	r3, #8
 80029c4:	9a22      	ldr	r2, [sp, #136]	; 0x88
 80029c6:	6013      	str	r3, [r2, #0]
 80029c8:	9806      	ldr	r0, [sp, #24]
 80029ca:	b015      	add	sp, #84	; 0x54
 80029cc:	e8bd 8ff0 	ldmia.w	sp!, {r4, r5, r6, r7, r8, r9, sl, fp, pc}
 80029d0:	4ba0      	ldr	r3, [pc, #640]	; (8002c54 <_dtoa_r+0x31c>)
 80029d2:	9306      	str	r3, [sp, #24]
 80029d4:	3303      	adds	r3, #3
 80029d6:	e7f5      	b.n	80029c4 <_dtoa_r+0x8c>
 80029d8:	e9dd 6702 	ldrd	r6, r7, [sp, #8]
 80029dc:	2200      	movs	r2, #0
 80029de:	2300      	movs	r3, #0
 80029e0:	4630      	mov	r0, r6
 80029e2:	4639      	mov	r1, r7
 80029e4:	f7fe f890 	bl	8000b08 <__aeabi_dcmpeq>
 80029e8:	4682      	mov	sl, r0
 80029ea:	b160      	cbz	r0, 8002a06 <_dtoa_r+0xce>
 80029ec:	9a20      	ldr	r2, [sp, #128]	; 0x80
 80029ee:	2301      	movs	r3, #1
 80029f0:	6013      	str	r3, [r2, #0]
 80029f2:	9b22      	ldr	r3, [sp, #136]	; 0x88
 80029f4:	2b00      	cmp	r3, #0
 80029f6:	f000 8526 	beq.w	8003446 <_dtoa_r+0xb0e>
 80029fa:	4b98      	ldr	r3, [pc, #608]	; (8002c5c <_dtoa_r+0x324>)
 80029fc:	9a22      	ldr	r2, [sp, #136]	; 0x88
 80029fe:	6013      	str	r3, [r2, #0]
 8002a00:	3b01      	subs	r3, #1
 8002a02:	9306      	str	r3, [sp, #24]
 8002a04:	e7e0      	b.n	80029c8 <_dtoa_r+0x90>
 8002a06:	ab12      	add	r3, sp, #72	; 0x48
 8002a08:	9301      	str	r3, [sp, #4]
 8002a0a:	ab13      	add	r3, sp, #76	; 0x4c
 8002a0c:	9300      	str	r3, [sp, #0]
 8002a0e:	4632      	mov	r2, r6
 8002a10:	463b      	mov	r3, r7
 8002a12:	4620      	mov	r0, r4
 8002a14:	f001 fbea 	bl	80041ec <__d2b>
 8002a18:	f3c8 550a 	ubfx	r5, r8, #20, #11
 8002a1c:	4683      	mov	fp, r0
 8002a1e:	2d00      	cmp	r5, #0
 8002a20:	d07c      	beq.n	8002b1c <_dtoa_r+0x1e4>
 8002a22:	f3c7 0313 	ubfx	r3, r7, #0, #20
 8002a26:	f043 597f 	orr.w	r9, r3, #1069547520	; 0x3fc00000
 8002a2a:	46b0      	mov	r8, r6
 8002a2c:	f449 1940 	orr.w	r9, r9, #3145728	; 0x300000
 8002a30:	f2a5 35ff 	subw	r5, r5, #1023	; 0x3ff
 8002a34:	f8cd a040 	str.w	sl, [sp, #64]	; 0x40
 8002a38:	2200      	movs	r2, #0
 8002a3a:	4b89      	ldr	r3, [pc, #548]	; (8002c60 <_dtoa_r+0x328>)
 8002a3c:	4640      	mov	r0, r8
 8002a3e:	4649      	mov	r1, r9
 8002a40:	f7fd fc42 	bl	80002c8 <__aeabi_dsub>
 8002a44:	a37c      	add	r3, pc, #496	; (adr r3, 8002c38 <_dtoa_r+0x300>)
 8002a46:	e9d3 2300 	ldrd	r2, r3, [r3]
 8002a4a:	f7fd fdf5 	bl	8000638 <__aeabi_dmul>
 8002a4e:	a37c      	add	r3, pc, #496	; (adr r3, 8002c40 <_dtoa_r+0x308>)
 8002a50:	e9d3 2300 	ldrd	r2, r3, [r3]
 8002a54:	f7fd fc3a 	bl	80002cc <__adddf3>
 8002a58:	4606      	mov	r6, r0
 8002a5a:	4628      	mov	r0, r5
 8002a5c:	460f      	mov	r7, r1
 8002a5e:	f7fd fd81 	bl	8000564 <__aeabi_i2d>
 8002a62:	a379      	add	r3, pc, #484	; (adr r3, 8002c48 <_dtoa_r+0x310>)
 8002a64:	e9d3 2300 	ldrd	r2, r3, [r3]
 8002a68:	f7fd fde6 	bl	8000638 <__aeabi_dmul>
 8002a6c:	4602      	mov	r2, r0
 8002a6e:	460b      	mov	r3, r1
 8002a70:	4630      	mov	r0, r6
 8002a72:	4639      	mov	r1, r7
 8002a74:	f7fd fc2a 	bl	80002cc <__adddf3>
 8002a78:	4606      	mov	r6, r0
 8002a7a:	460f      	mov	r7, r1
 8002a7c:	f7fe f88c 	bl	8000b98 <__aeabi_d2iz>
 8002a80:	2200      	movs	r2, #0
 8002a82:	4682      	mov	sl, r0
 8002a84:	2300      	movs	r3, #0
 8002a86:	4630      	mov	r0, r6
 8002a88:	4639      	mov	r1, r7
 8002a8a:	f7fe f847 	bl	8000b1c <__aeabi_dcmplt>
 8002a8e:	b148      	cbz	r0, 8002aa4 <_dtoa_r+0x16c>
 8002a90:	4650      	mov	r0, sl
 8002a92:	f7fd fd67 	bl	8000564 <__aeabi_i2d>
 8002a96:	4632      	mov	r2, r6
 8002a98:	463b      	mov	r3, r7
 8002a9a:	f7fe f835 	bl	8000b08 <__aeabi_dcmpeq>
 8002a9e:	b908      	cbnz	r0, 8002aa4 <_dtoa_r+0x16c>
 8002aa0:	f10a 3aff 	add.w	sl, sl, #4294967295
 8002aa4:	f1ba 0f16 	cmp.w	sl, #22
 8002aa8:	d859      	bhi.n	8002b5e <_dtoa_r+0x226>
 8002aaa:	496e      	ldr	r1, [pc, #440]	; (8002c64 <_dtoa_r+0x32c>)
 8002aac:	eb01 01ca 	add.w	r1, r1, sl, lsl #3
 8002ab0:	e9dd 2302 	ldrd	r2, r3, [sp, #8]
 8002ab4:	e9d1 0100 	ldrd	r0, r1, [r1]
 8002ab8:	f7fe f84e 	bl	8000b58 <__aeabi_dcmpgt>
 8002abc:	2800      	cmp	r0, #0
 8002abe:	d050      	beq.n	8002b62 <_dtoa_r+0x22a>
 8002ac0:	f10a 3aff 	add.w	sl, sl, #4294967295
 8002ac4:	2300      	movs	r3, #0
 8002ac6:	930d      	str	r3, [sp, #52]	; 0x34
 8002ac8:	9b12      	ldr	r3, [sp, #72]	; 0x48
 8002aca:	1b5d      	subs	r5, r3, r5
 8002acc:	1e6b      	subs	r3, r5, #1
 8002ace:	9307      	str	r3, [sp, #28]
 8002ad0:	bf43      	ittte	mi
 8002ad2:	2300      	movmi	r3, #0
 8002ad4:	f1c5 0901 	rsbmi	r9, r5, #1
 8002ad8:	9307      	strmi	r3, [sp, #28]
 8002ada:	f04f 0900 	movpl.w	r9, #0
 8002ade:	f1ba 0f00 	cmp.w	sl, #0
 8002ae2:	db40      	blt.n	8002b66 <_dtoa_r+0x22e>
 8002ae4:	9b07      	ldr	r3, [sp, #28]
 8002ae6:	f8cd a030 	str.w	sl, [sp, #48]	; 0x30
 8002aea:	4453      	add	r3, sl
 8002aec:	9307      	str	r3, [sp, #28]
 8002aee:	2300      	movs	r3, #0
 8002af0:	9308      	str	r3, [sp, #32]
 8002af2:	9b1e      	ldr	r3, [sp, #120]	; 0x78
 8002af4:	2b09      	cmp	r3, #9
 8002af6:	f200 808e 	bhi.w	8002c16 <_dtoa_r+0x2de>
 8002afa:	2b05      	cmp	r3, #5
 8002afc:	bfc4      	itt	gt
 8002afe:	3b04      	subgt	r3, #4
 8002b00:	931e      	strgt	r3, [sp, #120]	; 0x78
 8002b02:	9b1e      	ldr	r3, [sp, #120]	; 0x78
 8002b04:	f1a3 0302 	sub.w	r3, r3, #2
 8002b08:	bfcc      	ite	gt
 8002b0a:	2500      	movgt	r5, #0
 8002b0c:	2501      	movle	r5, #1
 8002b0e:	2b03      	cmp	r3, #3
 8002b10:	f200 808d 	bhi.w	8002c2e <_dtoa_r+0x2f6>
 8002b14:	e8df f003 	tbb	[pc, r3]
 8002b18:	6f2f7d7b 	.word	0x6f2f7d7b
 8002b1c:	e9dd 5312 	ldrd	r5, r3, [sp, #72]	; 0x48
 8002b20:	441d      	add	r5, r3
 8002b22:	f205 4032 	addw	r0, r5, #1074	; 0x432
 8002b26:	2820      	cmp	r0, #32
 8002b28:	dd13      	ble.n	8002b52 <_dtoa_r+0x21a>
 8002b2a:	f1c0 0040 	rsb	r0, r0, #64	; 0x40
 8002b2e:	9b02      	ldr	r3, [sp, #8]
 8002b30:	fa08 f800 	lsl.w	r8, r8, r0
 8002b34:	f205 4012 	addw	r0, r5, #1042	; 0x412
 8002b38:	fa23 f000 	lsr.w	r0, r3, r0
 8002b3c:	ea48 0000 	orr.w	r0, r8, r0
 8002b40:	f7fd fd00 	bl	8000544 <__aeabi_ui2d>
 8002b44:	2301      	movs	r3, #1
 8002b46:	4680      	mov	r8, r0
 8002b48:	f1a1 79f8 	sub.w	r9, r1, #32505856	; 0x1f00000
 8002b4c:	3d01      	subs	r5, #1
 8002b4e:	9310      	str	r3, [sp, #64]	; 0x40
 8002b50:	e772      	b.n	8002a38 <_dtoa_r+0x100>
 8002b52:	9b02      	ldr	r3, [sp, #8]
 8002b54:	f1c0 0020 	rsb	r0, r0, #32
 8002b58:	fa03 f000 	lsl.w	r0, r3, r0
 8002b5c:	e7f0      	b.n	8002b40 <_dtoa_r+0x208>
 8002b5e:	2301      	movs	r3, #1
 8002b60:	e7b1      	b.n	8002ac6 <_dtoa_r+0x18e>
 8002b62:	900d      	str	r0, [sp, #52]	; 0x34
 8002b64:	e7b0      	b.n	8002ac8 <_dtoa_r+0x190>
 8002b66:	f1ca 0300 	rsb	r3, sl, #0
 8002b6a:	9308      	str	r3, [sp, #32]
 8002b6c:	2300      	movs	r3, #0
 8002b6e:	eba9 090a 	sub.w	r9, r9, sl
 8002b72:	930c      	str	r3, [sp, #48]	; 0x30
 8002b74:	e7bd      	b.n	8002af2 <_dtoa_r+0x1ba>
 8002b76:	2301      	movs	r3, #1
 8002b78:	9309      	str	r3, [sp, #36]	; 0x24
 8002b7a:	9b1f      	ldr	r3, [sp, #124]	; 0x7c
 8002b7c:	2b00      	cmp	r3, #0
 8002b7e:	dd75      	ble.n	8002c6c <_dtoa_r+0x334>
 8002b80:	9304      	str	r3, [sp, #16]
 8002b82:	4698      	mov	r8, r3
 8002b84:	6a66      	ldr	r6, [r4, #36]	; 0x24
 8002b86:	2200      	movs	r2, #0
 8002b88:	6072      	str	r2, [r6, #4]
 8002b8a:	2204      	movs	r2, #4
 8002b8c:	f102 0014 	add.w	r0, r2, #20
 8002b90:	4298      	cmp	r0, r3
 8002b92:	6871      	ldr	r1, [r6, #4]
 8002b94:	d96f      	bls.n	8002c76 <_dtoa_r+0x33e>
 8002b96:	4620      	mov	r0, r4
 8002b98:	f000 ffe7 	bl	8003b6a <_Balloc>
 8002b9c:	6a63      	ldr	r3, [r4, #36]	; 0x24
 8002b9e:	6030      	str	r0, [r6, #0]
 8002ba0:	681b      	ldr	r3, [r3, #0]
 8002ba2:	9306      	str	r3, [sp, #24]
 8002ba4:	f1b8 0f0e 	cmp.w	r8, #14
 8002ba8:	f200 80ee 	bhi.w	8002d88 <_dtoa_r+0x450>
 8002bac:	2d00      	cmp	r5, #0
 8002bae:	f000 80eb 	beq.w	8002d88 <_dtoa_r+0x450>
 8002bb2:	e9dd 2302 	ldrd	r2, r3, [sp, #8]
 8002bb6:	f1ba 0f00 	cmp.w	sl, #0
 8002bba:	e9cd 230e 	strd	r2, r3, [sp, #56]	; 0x38
 8002bbe:	dd78      	ble.n	8002cb2 <_dtoa_r+0x37a>
 8002bc0:	4a28      	ldr	r2, [pc, #160]	; (8002c64 <_dtoa_r+0x32c>)
 8002bc2:	f00a 030f 	and.w	r3, sl, #15
 8002bc6:	eb02 03c3 	add.w	r3, r2, r3, lsl #3
 8002bca:	e9d3 2300 	ldrd	r2, r3, [r3]
 8002bce:	ea4f 162a 	mov.w	r6, sl, asr #4
 8002bd2:	06f0      	lsls	r0, r6, #27
 8002bd4:	e9cd 230a 	strd	r2, r3, [sp, #40]	; 0x28
 8002bd8:	d569      	bpl.n	8002cae <_dtoa_r+0x376>
 8002bda:	4b23      	ldr	r3, [pc, #140]	; (8002c68 <_dtoa_r+0x330>)
 8002bdc:	e9dd 010e 	ldrd	r0, r1, [sp, #56]	; 0x38
 8002be0:	e9d3 2308 	ldrd	r2, r3, [r3, #32]
 8002be4:	f7fd fe52 	bl	800088c <__aeabi_ddiv>
 8002be8:	e9cd 0102 	strd	r0, r1, [sp, #8]
 8002bec:	f006 060f 	and.w	r6, r6, #15
 8002bf0:	2503      	movs	r5, #3
 8002bf2:	4f1d      	ldr	r7, [pc, #116]	; (8002c68 <_dtoa_r+0x330>)
 8002bf4:	e050      	b.n	8002c98 <_dtoa_r+0x360>
 8002bf6:	2301      	movs	r3, #1
 8002bf8:	9309      	str	r3, [sp, #36]	; 0x24
 8002bfa:	9b1f      	ldr	r3, [sp, #124]	; 0x7c
 8002bfc:	4453      	add	r3, sl
 8002bfe:	f103 0801 	add.w	r8, r3, #1
 8002c02:	9304      	str	r3, [sp, #16]
 8002c04:	4643      	mov	r3, r8
 8002c06:	2b01      	cmp	r3, #1
 8002c08:	bfb8      	it	lt
 8002c0a:	2301      	movlt	r3, #1
 8002c0c:	e7ba      	b.n	8002b84 <_dtoa_r+0x24c>
 8002c0e:	2300      	movs	r3, #0
 8002c10:	e7b2      	b.n	8002b78 <_dtoa_r+0x240>
 8002c12:	2300      	movs	r3, #0
 8002c14:	e7f0      	b.n	8002bf8 <_dtoa_r+0x2c0>
 8002c16:	2501      	movs	r5, #1
 8002c18:	2300      	movs	r3, #0
 8002c1a:	931e      	str	r3, [sp, #120]	; 0x78
 8002c1c:	9509      	str	r5, [sp, #36]	; 0x24
 8002c1e:	f04f 33ff 	mov.w	r3, #4294967295
 8002c22:	9304      	str	r3, [sp, #16]
 8002c24:	4698      	mov	r8, r3
 8002c26:	2200      	movs	r2, #0
 8002c28:	2312      	movs	r3, #18
 8002c2a:	921f      	str	r2, [sp, #124]	; 0x7c
 8002c2c:	e7aa      	b.n	8002b84 <_dtoa_r+0x24c>
 8002c2e:	2301      	movs	r3, #1
 8002c30:	9309      	str	r3, [sp, #36]	; 0x24
 8002c32:	e7f4      	b.n	8002c1e <_dtoa_r+0x2e6>
 8002c34:	f3af 8000 	nop.w
 8002c38:	636f4361 	.word	0x636f4361
 8002c3c:	3fd287a7 	.word	0x3fd287a7
 8002c40:	8b60c8b3 	.word	0x8b60c8b3
 8002c44:	3fc68a28 	.word	0x3fc68a28
 8002c48:	509f79fb 	.word	0x509f79fb
 8002c4c:	3fd34413 	.word	0x3fd34413
 8002c50:	7ff00000 	.word	0x7ff00000
 8002c54:	08004911 	.word	0x08004911
 8002c58:	08004908 	.word	0x08004908
 8002c5c:	08004889 	.word	0x08004889
 8002c60:	3ff80000 	.word	0x3ff80000
 8002c64:	080049b0 	.word	0x080049b0
 8002c68:	08004988 	.word	0x08004988
 8002c6c:	2301      	movs	r3, #1
 8002c6e:	9304      	str	r3, [sp, #16]
 8002c70:	4698      	mov	r8, r3
 8002c72:	461a      	mov	r2, r3
 8002c74:	e7d9      	b.n	8002c2a <_dtoa_r+0x2f2>
 8002c76:	3101      	adds	r1, #1
 8002c78:	6071      	str	r1, [r6, #4]
 8002c7a:	0052      	lsls	r2, r2, #1
 8002c7c:	e786      	b.n	8002b8c <_dtoa_r+0x254>
 8002c7e:	07f1      	lsls	r1, r6, #31
 8002c80:	d508      	bpl.n	8002c94 <_dtoa_r+0x35c>
 8002c82:	e9dd 010a 	ldrd	r0, r1, [sp, #40]	; 0x28
 8002c86:	e9d7 2300 	ldrd	r2, r3, [r7]
 8002c8a:	f7fd fcd5 	bl	8000638 <__aeabi_dmul>
 8002c8e:	e9cd 010a 	strd	r0, r1, [sp, #40]	; 0x28
 8002c92:	3501      	adds	r5, #1
 8002c94:	1076      	asrs	r6, r6, #1
 8002c96:	3708      	adds	r7, #8
 8002c98:	2e00      	cmp	r6, #0
 8002c9a:	d1f0      	bne.n	8002c7e <_dtoa_r+0x346>
 8002c9c:	e9dd 230a 	ldrd	r2, r3, [sp, #40]	; 0x28
 8002ca0:	e9dd 0102 	ldrd	r0, r1, [sp, #8]
 8002ca4:	f7fd fdf2 	bl	800088c <__aeabi_ddiv>
 8002ca8:	e9cd 0102 	strd	r0, r1, [sp, #8]
 8002cac:	e01b      	b.n	8002ce6 <_dtoa_r+0x3ae>
 8002cae:	2502      	movs	r5, #2
 8002cb0:	e79f      	b.n	8002bf2 <_dtoa_r+0x2ba>
 8002cb2:	f000 80a4 	beq.w	8002dfe <_dtoa_r+0x4c6>
 8002cb6:	f1ca 0600 	rsb	r6, sl, #0
 8002cba:	4ba2      	ldr	r3, [pc, #648]	; (8002f44 <_dtoa_r+0x60c>)
 8002cbc:	4fa2      	ldr	r7, [pc, #648]	; (8002f48 <_dtoa_r+0x610>)
 8002cbe:	f006 020f 	and.w	r2, r6, #15
 8002cc2:	eb03 03c2 	add.w	r3, r3, r2, lsl #3
 8002cc6:	e9d3 2300 	ldrd	r2, r3, [r3]
 8002cca:	e9dd 010e 	ldrd	r0, r1, [sp, #56]	; 0x38
 8002cce:	f7fd fcb3 	bl	8000638 <__aeabi_dmul>
 8002cd2:	e9cd 0102 	strd	r0, r1, [sp, #8]
 8002cd6:	1136      	asrs	r6, r6, #4
 8002cd8:	2300      	movs	r3, #0
 8002cda:	2502      	movs	r5, #2
 8002cdc:	2e00      	cmp	r6, #0
 8002cde:	f040 8083 	bne.w	8002de8 <_dtoa_r+0x4b0>
 8002ce2:	2b00      	cmp	r3, #0
 8002ce4:	d1e0      	bne.n	8002ca8 <_dtoa_r+0x370>
 8002ce6:	9b0d      	ldr	r3, [sp, #52]	; 0x34
 8002ce8:	2b00      	cmp	r3, #0
 8002cea:	f000 808a 	beq.w	8002e02 <_dtoa_r+0x4ca>
 8002cee:	e9dd 2302 	ldrd	r2, r3, [sp, #8]
 8002cf2:	e9cd 230a 	strd	r2, r3, [sp, #40]	; 0x28
 8002cf6:	e9dd 010a 	ldrd	r0, r1, [sp, #40]	; 0x28
 8002cfa:	2200      	movs	r2, #0
 8002cfc:	4b93      	ldr	r3, [pc, #588]	; (8002f4c <_dtoa_r+0x614>)
 8002cfe:	f7fd ff0d 	bl	8000b1c <__aeabi_dcmplt>
 8002d02:	2800      	cmp	r0, #0
 8002d04:	d07d      	beq.n	8002e02 <_dtoa_r+0x4ca>
 8002d06:	f1b8 0f00 	cmp.w	r8, #0
 8002d0a:	d07a      	beq.n	8002e02 <_dtoa_r+0x4ca>
 8002d0c:	9b04      	ldr	r3, [sp, #16]
 8002d0e:	2b00      	cmp	r3, #0
 8002d10:	dd36      	ble.n	8002d80 <_dtoa_r+0x448>
 8002d12:	2200      	movs	r2, #0
 8002d14:	4b8e      	ldr	r3, [pc, #568]	; (8002f50 <_dtoa_r+0x618>)
 8002d16:	e9dd 010a 	ldrd	r0, r1, [sp, #40]	; 0x28
 8002d1a:	f7fd fc8d 	bl	8000638 <__aeabi_dmul>
 8002d1e:	e9cd 0102 	strd	r0, r1, [sp, #8]
 8002d22:	9e04      	ldr	r6, [sp, #16]
 8002d24:	f10a 37ff 	add.w	r7, sl, #4294967295
 8002d28:	3501      	adds	r5, #1
 8002d2a:	4628      	mov	r0, r5
 8002d2c:	f7fd fc1a 	bl	8000564 <__aeabi_i2d>
 8002d30:	e9dd 2302 	ldrd	r2, r3, [sp, #8]
 8002d34:	f7fd fc80 	bl	8000638 <__aeabi_dmul>
 8002d38:	2200      	movs	r2, #0
 8002d3a:	4b86      	ldr	r3, [pc, #536]	; (8002f54 <_dtoa_r+0x61c>)
 8002d3c:	f7fd fac6 	bl	80002cc <__adddf3>
 8002d40:	f1a1 7550 	sub.w	r5, r1, #54525952	; 0x3400000
 8002d44:	e9cd 010a 	strd	r0, r1, [sp, #40]	; 0x28
 8002d48:	950b      	str	r5, [sp, #44]	; 0x2c
 8002d4a:	2e00      	cmp	r6, #0
 8002d4c:	d15c      	bne.n	8002e08 <_dtoa_r+0x4d0>
 8002d4e:	2200      	movs	r2, #0
 8002d50:	4b81      	ldr	r3, [pc, #516]	; (8002f58 <_dtoa_r+0x620>)
 8002d52:	e9dd 0102 	ldrd	r0, r1, [sp, #8]
 8002d56:	f7fd fab7 	bl	80002c8 <__aeabi_dsub>
 8002d5a:	9a0a      	ldr	r2, [sp, #40]	; 0x28
 8002d5c:	462b      	mov	r3, r5
 8002d5e:	e9cd 0102 	strd	r0, r1, [sp, #8]
 8002d62:	f7fd fef9 	bl	8000b58 <__aeabi_dcmpgt>
 8002d66:	2800      	cmp	r0, #0
 8002d68:	f040 8284 	bne.w	8003274 <_dtoa_r+0x93c>
 8002d6c:	9a0a      	ldr	r2, [sp, #40]	; 0x28
 8002d6e:	f105 4300 	add.w	r3, r5, #2147483648	; 0x80000000
 8002d72:	e9dd 0102 	ldrd	r0, r1, [sp, #8]
 8002d76:	f7fd fed1 	bl	8000b1c <__aeabi_dcmplt>
 8002d7a:	2800      	cmp	r0, #0
 8002d7c:	f040 8278 	bne.w	8003270 <_dtoa_r+0x938>
 8002d80:	e9dd 230e 	ldrd	r2, r3, [sp, #56]	; 0x38
 8002d84:	e9cd 2302 	strd	r2, r3, [sp, #8]
 8002d88:	9b13      	ldr	r3, [sp, #76]	; 0x4c
 8002d8a:	2b00      	cmp	r3, #0
 8002d8c:	f2c0 814e 	blt.w	800302c <_dtoa_r+0x6f4>
 8002d90:	f1ba 0f0e 	cmp.w	sl, #14
 8002d94:	f300 814a 	bgt.w	800302c <_dtoa_r+0x6f4>
 8002d98:	4b6a      	ldr	r3, [pc, #424]	; (8002f44 <_dtoa_r+0x60c>)
 8002d9a:	eb03 03ca 	add.w	r3, r3, sl, lsl #3
 8002d9e:	e9d3 2300 	ldrd	r2, r3, [r3]
 8002da2:	e9cd 2304 	strd	r2, r3, [sp, #16]
 8002da6:	9b1f      	ldr	r3, [sp, #124]	; 0x7c
 8002da8:	2b00      	cmp	r3, #0
 8002daa:	f280 80d9 	bge.w	8002f60 <_dtoa_r+0x628>
 8002dae:	f1b8 0f00 	cmp.w	r8, #0
 8002db2:	f300 80d5 	bgt.w	8002f60 <_dtoa_r+0x628>
 8002db6:	f040 825a 	bne.w	800326e <_dtoa_r+0x936>
 8002dba:	2200      	movs	r2, #0
 8002dbc:	4b66      	ldr	r3, [pc, #408]	; (8002f58 <_dtoa_r+0x620>)
 8002dbe:	e9dd 0104 	ldrd	r0, r1, [sp, #16]
 8002dc2:	f7fd fc39 	bl	8000638 <__aeabi_dmul>
 8002dc6:	e9dd 2302 	ldrd	r2, r3, [sp, #8]
 8002dca:	f7fd febb 	bl	8000b44 <__aeabi_dcmpge>
 8002dce:	4646      	mov	r6, r8
 8002dd0:	4647      	mov	r7, r8
 8002dd2:	2800      	cmp	r0, #0
 8002dd4:	f040 8230 	bne.w	8003238 <_dtoa_r+0x900>
 8002dd8:	9b06      	ldr	r3, [sp, #24]
 8002dda:	9a06      	ldr	r2, [sp, #24]
 8002ddc:	1c5d      	adds	r5, r3, #1
 8002dde:	2331      	movs	r3, #49	; 0x31
 8002de0:	7013      	strb	r3, [r2, #0]
 8002de2:	f10a 0a01 	add.w	sl, sl, #1
 8002de6:	e22b      	b.n	8003240 <_dtoa_r+0x908>
 8002de8:	07f2      	lsls	r2, r6, #31
 8002dea:	d505      	bpl.n	8002df8 <_dtoa_r+0x4c0>
 8002dec:	e9d7 2300 	ldrd	r2, r3, [r7]
 8002df0:	f7fd fc22 	bl	8000638 <__aeabi_dmul>
 8002df4:	3501      	adds	r5, #1
 8002df6:	2301      	movs	r3, #1
 8002df8:	1076      	asrs	r6, r6, #1
 8002dfa:	3708      	adds	r7, #8
 8002dfc:	e76e      	b.n	8002cdc <_dtoa_r+0x3a4>
 8002dfe:	2502      	movs	r5, #2
 8002e00:	e771      	b.n	8002ce6 <_dtoa_r+0x3ae>
 8002e02:	4657      	mov	r7, sl
 8002e04:	4646      	mov	r6, r8
 8002e06:	e790      	b.n	8002d2a <_dtoa_r+0x3f2>
 8002e08:	4b4e      	ldr	r3, [pc, #312]	; (8002f44 <_dtoa_r+0x60c>)
 8002e0a:	eb03 03c6 	add.w	r3, r3, r6, lsl #3
 8002e0e:	e953 0102 	ldrd	r0, r1, [r3, #-8]
 8002e12:	9b09      	ldr	r3, [sp, #36]	; 0x24
 8002e14:	2b00      	cmp	r3, #0
 8002e16:	d048      	beq.n	8002eaa <_dtoa_r+0x572>
 8002e18:	4602      	mov	r2, r0
 8002e1a:	460b      	mov	r3, r1
 8002e1c:	2000      	movs	r0, #0
 8002e1e:	494f      	ldr	r1, [pc, #316]	; (8002f5c <_dtoa_r+0x624>)
 8002e20:	f7fd fd34 	bl	800088c <__aeabi_ddiv>
 8002e24:	e9dd 230a 	ldrd	r2, r3, [sp, #40]	; 0x28
 8002e28:	f7fd fa4e 	bl	80002c8 <__aeabi_dsub>
 8002e2c:	e9cd 010a 	strd	r0, r1, [sp, #40]	; 0x28
 8002e30:	9d06      	ldr	r5, [sp, #24]
 8002e32:	e9dd 0102 	ldrd	r0, r1, [sp, #8]
 8002e36:	f7fd feaf 	bl	8000b98 <__aeabi_d2iz>
 8002e3a:	9011      	str	r0, [sp, #68]	; 0x44
 8002e3c:	f7fd fb92 	bl	8000564 <__aeabi_i2d>
 8002e40:	4602      	mov	r2, r0
 8002e42:	460b      	mov	r3, r1
 8002e44:	e9dd 0102 	ldrd	r0, r1, [sp, #8]
 8002e48:	f7fd fa3e 	bl	80002c8 <__aeabi_dsub>
 8002e4c:	9b11      	ldr	r3, [sp, #68]	; 0x44
 8002e4e:	3330      	adds	r3, #48	; 0x30
 8002e50:	f805 3b01 	strb.w	r3, [r5], #1
 8002e54:	e9dd 230a 	ldrd	r2, r3, [sp, #40]	; 0x28
 8002e58:	e9cd 0102 	strd	r0, r1, [sp, #8]
 8002e5c:	f7fd fe5e 	bl	8000b1c <__aeabi_dcmplt>
 8002e60:	2800      	cmp	r0, #0
 8002e62:	d164      	bne.n	8002f2e <_dtoa_r+0x5f6>
 8002e64:	e9dd 2302 	ldrd	r2, r3, [sp, #8]
 8002e68:	2000      	movs	r0, #0
 8002e6a:	4938      	ldr	r1, [pc, #224]	; (8002f4c <_dtoa_r+0x614>)
 8002e6c:	f7fd fa2c 	bl	80002c8 <__aeabi_dsub>
 8002e70:	e9dd 230a 	ldrd	r2, r3, [sp, #40]	; 0x28
 8002e74:	f7fd fe52 	bl	8000b1c <__aeabi_dcmplt>
 8002e78:	2800      	cmp	r0, #0
 8002e7a:	f040 80b7 	bne.w	8002fec <_dtoa_r+0x6b4>
 8002e7e:	9b06      	ldr	r3, [sp, #24]
 8002e80:	1aeb      	subs	r3, r5, r3
 8002e82:	429e      	cmp	r6, r3
 8002e84:	f77f af7c 	ble.w	8002d80 <_dtoa_r+0x448>
 8002e88:	2200      	movs	r2, #0
 8002e8a:	4b31      	ldr	r3, [pc, #196]	; (8002f50 <_dtoa_r+0x618>)
 8002e8c:	e9dd 010a 	ldrd	r0, r1, [sp, #40]	; 0x28
 8002e90:	f7fd fbd2 	bl	8000638 <__aeabi_dmul>
 8002e94:	2200      	movs	r2, #0
 8002e96:	e9cd 010a 	strd	r0, r1, [sp, #40]	; 0x28
 8002e9a:	4b2d      	ldr	r3, [pc, #180]	; (8002f50 <_dtoa_r+0x618>)
 8002e9c:	e9dd 0102 	ldrd	r0, r1, [sp, #8]
 8002ea0:	f7fd fbca 	bl	8000638 <__aeabi_dmul>
 8002ea4:	e9cd 0102 	strd	r0, r1, [sp, #8]
 8002ea8:	e7c3      	b.n	8002e32 <_dtoa_r+0x4fa>
 8002eaa:	e9dd 230a 	ldrd	r2, r3, [sp, #40]	; 0x28
 8002eae:	f7fd fbc3 	bl	8000638 <__aeabi_dmul>
 8002eb2:	9b06      	ldr	r3, [sp, #24]
 8002eb4:	e9cd 010a 	strd	r0, r1, [sp, #40]	; 0x28
 8002eb8:	199d      	adds	r5, r3, r6
 8002eba:	461e      	mov	r6, r3
 8002ebc:	e9dd 0102 	ldrd	r0, r1, [sp, #8]
 8002ec0:	f7fd fe6a 	bl	8000b98 <__aeabi_d2iz>
 8002ec4:	9011      	str	r0, [sp, #68]	; 0x44
 8002ec6:	f7fd fb4d 	bl	8000564 <__aeabi_i2d>
 8002eca:	4602      	mov	r2, r0
 8002ecc:	460b      	mov	r3, r1
 8002ece:	e9dd 0102 	ldrd	r0, r1, [sp, #8]
 8002ed2:	f7fd f9f9 	bl	80002c8 <__aeabi_dsub>
 8002ed6:	9b11      	ldr	r3, [sp, #68]	; 0x44
 8002ed8:	3330      	adds	r3, #48	; 0x30
 8002eda:	f806 3b01 	strb.w	r3, [r6], #1
 8002ede:	42ae      	cmp	r6, r5
 8002ee0:	e9cd 0102 	strd	r0, r1, [sp, #8]
 8002ee4:	f04f 0200 	mov.w	r2, #0
 8002ee8:	d125      	bne.n	8002f36 <_dtoa_r+0x5fe>
 8002eea:	4b1c      	ldr	r3, [pc, #112]	; (8002f5c <_dtoa_r+0x624>)
 8002eec:	e9dd 010a 	ldrd	r0, r1, [sp, #40]	; 0x28
 8002ef0:	f7fd f9ec 	bl	80002cc <__adddf3>
 8002ef4:	4602      	mov	r2, r0
 8002ef6:	460b      	mov	r3, r1
 8002ef8:	e9dd 0102 	ldrd	r0, r1, [sp, #8]
 8002efc:	f7fd fe2c 	bl	8000b58 <__aeabi_dcmpgt>
 8002f00:	2800      	cmp	r0, #0
 8002f02:	d173      	bne.n	8002fec <_dtoa_r+0x6b4>
 8002f04:	e9dd 230a 	ldrd	r2, r3, [sp, #40]	; 0x28
 8002f08:	2000      	movs	r0, #0
 8002f0a:	4914      	ldr	r1, [pc, #80]	; (8002f5c <_dtoa_r+0x624>)
 8002f0c:	f7fd f9dc 	bl	80002c8 <__aeabi_dsub>
 8002f10:	4602      	mov	r2, r0
 8002f12:	460b      	mov	r3, r1
 8002f14:	e9dd 0102 	ldrd	r0, r1, [sp, #8]
 8002f18:	f7fd fe00 	bl	8000b1c <__aeabi_dcmplt>
 8002f1c:	2800      	cmp	r0, #0
 8002f1e:	f43f af2f 	beq.w	8002d80 <_dtoa_r+0x448>
 8002f22:	f815 3c01 	ldrb.w	r3, [r5, #-1]
 8002f26:	2b30      	cmp	r3, #48	; 0x30
 8002f28:	f105 32ff 	add.w	r2, r5, #4294967295
 8002f2c:	d001      	beq.n	8002f32 <_dtoa_r+0x5fa>
 8002f2e:	46ba      	mov	sl, r7
 8002f30:	e04b      	b.n	8002fca <_dtoa_r+0x692>
 8002f32:	4615      	mov	r5, r2
 8002f34:	e7f5      	b.n	8002f22 <_dtoa_r+0x5ea>
 8002f36:	4b06      	ldr	r3, [pc, #24]	; (8002f50 <_dtoa_r+0x618>)
 8002f38:	f7fd fb7e 	bl	8000638 <__aeabi_dmul>
 8002f3c:	e9cd 0102 	strd	r0, r1, [sp, #8]
 8002f40:	e7bc      	b.n	8002ebc <_dtoa_r+0x584>
 8002f42:	bf00      	nop
 8002f44:	080049b0 	.word	0x080049b0
 8002f48:	08004988 	.word	0x08004988
 8002f4c:	3ff00000 	.word	0x3ff00000
 8002f50:	40240000 	.word	0x40240000
 8002f54:	401c0000 	.word	0x401c0000
 8002f58:	40140000 	.word	0x40140000
 8002f5c:	3fe00000 	.word	0x3fe00000
 8002f60:	e9dd 6702 	ldrd	r6, r7, [sp, #8]
 8002f64:	9d06      	ldr	r5, [sp, #24]
 8002f66:	e9dd 2304 	ldrd	r2, r3, [sp, #16]
 8002f6a:	4630      	mov	r0, r6
 8002f6c:	4639      	mov	r1, r7
 8002f6e:	f7fd fc8d 	bl	800088c <__aeabi_ddiv>
 8002f72:	f7fd fe11 	bl	8000b98 <__aeabi_d2iz>
 8002f76:	4681      	mov	r9, r0
 8002f78:	f7fd faf4 	bl	8000564 <__aeabi_i2d>
 8002f7c:	e9dd 2304 	ldrd	r2, r3, [sp, #16]
 8002f80:	f7fd fb5a 	bl	8000638 <__aeabi_dmul>
 8002f84:	4602      	mov	r2, r0
 8002f86:	460b      	mov	r3, r1
 8002f88:	4630      	mov	r0, r6
 8002f8a:	4639      	mov	r1, r7
 8002f8c:	f109 0630 	add.w	r6, r9, #48	; 0x30
 8002f90:	f7fd f99a 	bl	80002c8 <__aeabi_dsub>
 8002f94:	f805 6b01 	strb.w	r6, [r5], #1
 8002f98:	9e06      	ldr	r6, [sp, #24]
 8002f9a:	1bae      	subs	r6, r5, r6
 8002f9c:	45b0      	cmp	r8, r6
 8002f9e:	4602      	mov	r2, r0
 8002fa0:	460b      	mov	r3, r1
 8002fa2:	d136      	bne.n	8003012 <_dtoa_r+0x6da>
 8002fa4:	f7fd f992 	bl	80002cc <__adddf3>
 8002fa8:	e9dd 2304 	ldrd	r2, r3, [sp, #16]
 8002fac:	4606      	mov	r6, r0
 8002fae:	460f      	mov	r7, r1
 8002fb0:	f7fd fdd2 	bl	8000b58 <__aeabi_dcmpgt>
 8002fb4:	b9c8      	cbnz	r0, 8002fea <_dtoa_r+0x6b2>
 8002fb6:	e9dd 2304 	ldrd	r2, r3, [sp, #16]
 8002fba:	4630      	mov	r0, r6
 8002fbc:	4639      	mov	r1, r7
 8002fbe:	f7fd fda3 	bl	8000b08 <__aeabi_dcmpeq>
 8002fc2:	b110      	cbz	r0, 8002fca <_dtoa_r+0x692>
 8002fc4:	f019 0f01 	tst.w	r9, #1
 8002fc8:	d10f      	bne.n	8002fea <_dtoa_r+0x6b2>
 8002fca:	4659      	mov	r1, fp
 8002fcc:	4620      	mov	r0, r4
 8002fce:	f000 fe00 	bl	8003bd2 <_Bfree>
 8002fd2:	2300      	movs	r3, #0
 8002fd4:	9a20      	ldr	r2, [sp, #128]	; 0x80
 8002fd6:	702b      	strb	r3, [r5, #0]
 8002fd8:	f10a 0301 	add.w	r3, sl, #1
 8002fdc:	6013      	str	r3, [r2, #0]
 8002fde:	9b22      	ldr	r3, [sp, #136]	; 0x88
 8002fe0:	2b00      	cmp	r3, #0
 8002fe2:	f43f acf1 	beq.w	80029c8 <_dtoa_r+0x90>
 8002fe6:	601d      	str	r5, [r3, #0]
 8002fe8:	e4ee      	b.n	80029c8 <_dtoa_r+0x90>
 8002fea:	4657      	mov	r7, sl
 8002fec:	f815 2c01 	ldrb.w	r2, [r5, #-1]
 8002ff0:	2a39      	cmp	r2, #57	; 0x39
 8002ff2:	f105 33ff 	add.w	r3, r5, #4294967295
 8002ff6:	d106      	bne.n	8003006 <_dtoa_r+0x6ce>
 8002ff8:	9a06      	ldr	r2, [sp, #24]
 8002ffa:	429a      	cmp	r2, r3
 8002ffc:	d107      	bne.n	800300e <_dtoa_r+0x6d6>
 8002ffe:	2330      	movs	r3, #48	; 0x30
 8003000:	7013      	strb	r3, [r2, #0]
 8003002:	3701      	adds	r7, #1
 8003004:	4613      	mov	r3, r2
 8003006:	781a      	ldrb	r2, [r3, #0]
 8003008:	3201      	adds	r2, #1
 800300a:	701a      	strb	r2, [r3, #0]
 800300c:	e78f      	b.n	8002f2e <_dtoa_r+0x5f6>
 800300e:	461d      	mov	r5, r3
 8003010:	e7ec      	b.n	8002fec <_dtoa_r+0x6b4>
 8003012:	2200      	movs	r2, #0
 8003014:	4b99      	ldr	r3, [pc, #612]	; (800327c <_dtoa_r+0x944>)
 8003016:	f7fd fb0f 	bl	8000638 <__aeabi_dmul>
 800301a:	2200      	movs	r2, #0
 800301c:	2300      	movs	r3, #0
 800301e:	4606      	mov	r6, r0
 8003020:	460f      	mov	r7, r1
 8003022:	f7fd fd71 	bl	8000b08 <__aeabi_dcmpeq>
 8003026:	2800      	cmp	r0, #0
 8003028:	d09d      	beq.n	8002f66 <_dtoa_r+0x62e>
 800302a:	e7ce      	b.n	8002fca <_dtoa_r+0x692>
 800302c:	9a09      	ldr	r2, [sp, #36]	; 0x24
 800302e:	2a00      	cmp	r2, #0
 8003030:	f000 8088 	beq.w	8003144 <_dtoa_r+0x80c>
 8003034:	9a1e      	ldr	r2, [sp, #120]	; 0x78
 8003036:	2a01      	cmp	r2, #1
 8003038:	dc6d      	bgt.n	8003116 <_dtoa_r+0x7de>
 800303a:	9a10      	ldr	r2, [sp, #64]	; 0x40
 800303c:	2a00      	cmp	r2, #0
 800303e:	d066      	beq.n	800310e <_dtoa_r+0x7d6>
 8003040:	f203 4333 	addw	r3, r3, #1075	; 0x433
 8003044:	9e08      	ldr	r6, [sp, #32]
 8003046:	464d      	mov	r5, r9
 8003048:	9a07      	ldr	r2, [sp, #28]
 800304a:	2101      	movs	r1, #1
 800304c:	441a      	add	r2, r3
 800304e:	4620      	mov	r0, r4
 8003050:	4499      	add	r9, r3
 8003052:	9207      	str	r2, [sp, #28]
 8003054:	f000 fe9b 	bl	8003d8e <__i2b>
 8003058:	4607      	mov	r7, r0
 800305a:	2d00      	cmp	r5, #0
 800305c:	dd0b      	ble.n	8003076 <_dtoa_r+0x73e>
 800305e:	9b07      	ldr	r3, [sp, #28]
 8003060:	2b00      	cmp	r3, #0
 8003062:	dd08      	ble.n	8003076 <_dtoa_r+0x73e>
 8003064:	42ab      	cmp	r3, r5
 8003066:	9a07      	ldr	r2, [sp, #28]
 8003068:	bfa8      	it	ge
 800306a:	462b      	movge	r3, r5
 800306c:	eba9 0903 	sub.w	r9, r9, r3
 8003070:	1aed      	subs	r5, r5, r3
 8003072:	1ad3      	subs	r3, r2, r3
 8003074:	9307      	str	r3, [sp, #28]
 8003076:	9b08      	ldr	r3, [sp, #32]
 8003078:	b1eb      	cbz	r3, 80030b6 <_dtoa_r+0x77e>
 800307a:	9b09      	ldr	r3, [sp, #36]	; 0x24
 800307c:	2b00      	cmp	r3, #0
 800307e:	d065      	beq.n	800314c <_dtoa_r+0x814>
 8003080:	b18e      	cbz	r6, 80030a6 <_dtoa_r+0x76e>
 8003082:	4639      	mov	r1, r7
 8003084:	4632      	mov	r2, r6
 8003086:	4620      	mov	r0, r4
 8003088:	f000 ff20 	bl	8003ecc <__pow5mult>
 800308c:	465a      	mov	r2, fp
 800308e:	4601      	mov	r1, r0
 8003090:	4607      	mov	r7, r0
 8003092:	4620      	mov	r0, r4
 8003094:	f000 fe84 	bl	8003da0 <__multiply>
 8003098:	4659      	mov	r1, fp
 800309a:	900a      	str	r0, [sp, #40]	; 0x28
 800309c:	4620      	mov	r0, r4
 800309e:	f000 fd98 	bl	8003bd2 <_Bfree>
 80030a2:	9b0a      	ldr	r3, [sp, #40]	; 0x28
 80030a4:	469b      	mov	fp, r3
 80030a6:	9b08      	ldr	r3, [sp, #32]
 80030a8:	1b9a      	subs	r2, r3, r6
 80030aa:	d004      	beq.n	80030b6 <_dtoa_r+0x77e>
 80030ac:	4659      	mov	r1, fp
 80030ae:	4620      	mov	r0, r4
 80030b0:	f000 ff0c 	bl	8003ecc <__pow5mult>
 80030b4:	4683      	mov	fp, r0
 80030b6:	2101      	movs	r1, #1
 80030b8:	4620      	mov	r0, r4
 80030ba:	f000 fe68 	bl	8003d8e <__i2b>
 80030be:	9b0c      	ldr	r3, [sp, #48]	; 0x30
 80030c0:	4606      	mov	r6, r0
 80030c2:	2b00      	cmp	r3, #0
 80030c4:	f000 81c9 	beq.w	800345a <_dtoa_r+0xb22>
 80030c8:	461a      	mov	r2, r3
 80030ca:	4601      	mov	r1, r0
 80030cc:	4620      	mov	r0, r4
 80030ce:	f000 fefd 	bl	8003ecc <__pow5mult>
 80030d2:	9b1e      	ldr	r3, [sp, #120]	; 0x78
 80030d4:	2b01      	cmp	r3, #1
 80030d6:	4606      	mov	r6, r0
 80030d8:	dc3e      	bgt.n	8003158 <_dtoa_r+0x820>
 80030da:	9b02      	ldr	r3, [sp, #8]
 80030dc:	2b00      	cmp	r3, #0
 80030de:	d137      	bne.n	8003150 <_dtoa_r+0x818>
 80030e0:	9b03      	ldr	r3, [sp, #12]
 80030e2:	f3c3 0313 	ubfx	r3, r3, #0, #20
 80030e6:	2b00      	cmp	r3, #0
 80030e8:	d134      	bne.n	8003154 <_dtoa_r+0x81c>
 80030ea:	9b03      	ldr	r3, [sp, #12]
 80030ec:	f023 4300 	bic.w	r3, r3, #2147483648	; 0x80000000
 80030f0:	0d1b      	lsrs	r3, r3, #20
 80030f2:	051b      	lsls	r3, r3, #20
 80030f4:	b12b      	cbz	r3, 8003102 <_dtoa_r+0x7ca>
 80030f6:	9b07      	ldr	r3, [sp, #28]
 80030f8:	3301      	adds	r3, #1
 80030fa:	9307      	str	r3, [sp, #28]
 80030fc:	f109 0901 	add.w	r9, r9, #1
 8003100:	2301      	movs	r3, #1
 8003102:	9308      	str	r3, [sp, #32]
 8003104:	9b0c      	ldr	r3, [sp, #48]	; 0x30
 8003106:	2b00      	cmp	r3, #0
 8003108:	d128      	bne.n	800315c <_dtoa_r+0x824>
 800310a:	2001      	movs	r0, #1
 800310c:	e02e      	b.n	800316c <_dtoa_r+0x834>
 800310e:	9b12      	ldr	r3, [sp, #72]	; 0x48
 8003110:	f1c3 0336 	rsb	r3, r3, #54	; 0x36
 8003114:	e796      	b.n	8003044 <_dtoa_r+0x70c>
 8003116:	9b08      	ldr	r3, [sp, #32]
 8003118:	f108 36ff 	add.w	r6, r8, #4294967295
 800311c:	42b3      	cmp	r3, r6
 800311e:	bfbf      	itttt	lt
 8003120:	9b08      	ldrlt	r3, [sp, #32]
 8003122:	9608      	strlt	r6, [sp, #32]
 8003124:	1af2      	sublt	r2, r6, r3
 8003126:	9b0c      	ldrlt	r3, [sp, #48]	; 0x30
 8003128:	bfb7      	itett	lt
 800312a:	189b      	addlt	r3, r3, r2
 800312c:	1b9e      	subge	r6, r3, r6
 800312e:	930c      	strlt	r3, [sp, #48]	; 0x30
 8003130:	2600      	movlt	r6, #0
 8003132:	f1b8 0f00 	cmp.w	r8, #0
 8003136:	bfb9      	ittee	lt
 8003138:	eba9 0508 	sublt.w	r5, r9, r8
 800313c:	2300      	movlt	r3, #0
 800313e:	464d      	movge	r5, r9
 8003140:	4643      	movge	r3, r8
 8003142:	e781      	b.n	8003048 <_dtoa_r+0x710>
 8003144:	9e08      	ldr	r6, [sp, #32]
 8003146:	9f09      	ldr	r7, [sp, #36]	; 0x24
 8003148:	464d      	mov	r5, r9
 800314a:	e786      	b.n	800305a <_dtoa_r+0x722>
 800314c:	9a08      	ldr	r2, [sp, #32]
 800314e:	e7ad      	b.n	80030ac <_dtoa_r+0x774>
 8003150:	2300      	movs	r3, #0
 8003152:	e7d6      	b.n	8003102 <_dtoa_r+0x7ca>
 8003154:	9b02      	ldr	r3, [sp, #8]
 8003156:	e7d4      	b.n	8003102 <_dtoa_r+0x7ca>
 8003158:	2300      	movs	r3, #0
 800315a:	9308      	str	r3, [sp, #32]
 800315c:	6933      	ldr	r3, [r6, #16]
 800315e:	eb06 0383 	add.w	r3, r6, r3, lsl #2
 8003162:	6918      	ldr	r0, [r3, #16]
 8003164:	f000 fdc5 	bl	8003cf2 <__hi0bits>
 8003168:	f1c0 0020 	rsb	r0, r0, #32
 800316c:	9b07      	ldr	r3, [sp, #28]
 800316e:	4418      	add	r0, r3
 8003170:	f010 001f 	ands.w	r0, r0, #31
 8003174:	d047      	beq.n	8003206 <_dtoa_r+0x8ce>
 8003176:	f1c0 0320 	rsb	r3, r0, #32
 800317a:	2b04      	cmp	r3, #4
 800317c:	dd3b      	ble.n	80031f6 <_dtoa_r+0x8be>
 800317e:	9b07      	ldr	r3, [sp, #28]
 8003180:	f1c0 001c 	rsb	r0, r0, #28
 8003184:	4481      	add	r9, r0
 8003186:	4405      	add	r5, r0
 8003188:	4403      	add	r3, r0
 800318a:	9307      	str	r3, [sp, #28]
 800318c:	f1b9 0f00 	cmp.w	r9, #0
 8003190:	dd05      	ble.n	800319e <_dtoa_r+0x866>
 8003192:	4659      	mov	r1, fp
 8003194:	464a      	mov	r2, r9
 8003196:	4620      	mov	r0, r4
 8003198:	f000 fee6 	bl	8003f68 <__lshift>
 800319c:	4683      	mov	fp, r0
 800319e:	9b07      	ldr	r3, [sp, #28]
 80031a0:	2b00      	cmp	r3, #0
 80031a2:	dd05      	ble.n	80031b0 <_dtoa_r+0x878>
 80031a4:	4631      	mov	r1, r6
 80031a6:	461a      	mov	r2, r3
 80031a8:	4620      	mov	r0, r4
 80031aa:	f000 fedd 	bl	8003f68 <__lshift>
 80031ae:	4606      	mov	r6, r0
 80031b0:	9b0d      	ldr	r3, [sp, #52]	; 0x34
 80031b2:	b353      	cbz	r3, 800320a <_dtoa_r+0x8d2>
 80031b4:	4631      	mov	r1, r6
 80031b6:	4658      	mov	r0, fp
 80031b8:	f000 ff2a 	bl	8004010 <__mcmp>
 80031bc:	2800      	cmp	r0, #0
 80031be:	da24      	bge.n	800320a <_dtoa_r+0x8d2>
 80031c0:	2300      	movs	r3, #0
 80031c2:	4659      	mov	r1, fp
 80031c4:	220a      	movs	r2, #10
 80031c6:	4620      	mov	r0, r4
 80031c8:	f000 fd1a 	bl	8003c00 <__multadd>
 80031cc:	9b09      	ldr	r3, [sp, #36]	; 0x24
 80031ce:	f10a 3aff 	add.w	sl, sl, #4294967295
 80031d2:	4683      	mov	fp, r0
 80031d4:	2b00      	cmp	r3, #0
 80031d6:	f000 8147 	beq.w	8003468 <_dtoa_r+0xb30>
 80031da:	2300      	movs	r3, #0
 80031dc:	4639      	mov	r1, r7
 80031de:	220a      	movs	r2, #10
 80031e0:	4620      	mov	r0, r4
 80031e2:	f000 fd0d 	bl	8003c00 <__multadd>
 80031e6:	9b04      	ldr	r3, [sp, #16]
 80031e8:	2b00      	cmp	r3, #0
 80031ea:	4607      	mov	r7, r0
 80031ec:	dc4e      	bgt.n	800328c <_dtoa_r+0x954>
 80031ee:	9b1e      	ldr	r3, [sp, #120]	; 0x78
 80031f0:	2b02      	cmp	r3, #2
 80031f2:	dd4b      	ble.n	800328c <_dtoa_r+0x954>
 80031f4:	e011      	b.n	800321a <_dtoa_r+0x8e2>
 80031f6:	d0c9      	beq.n	800318c <_dtoa_r+0x854>
 80031f8:	9a07      	ldr	r2, [sp, #28]
 80031fa:	331c      	adds	r3, #28
 80031fc:	441a      	add	r2, r3
 80031fe:	4499      	add	r9, r3
 8003200:	441d      	add	r5, r3
 8003202:	4613      	mov	r3, r2
 8003204:	e7c1      	b.n	800318a <_dtoa_r+0x852>
 8003206:	4603      	mov	r3, r0
 8003208:	e7f6      	b.n	80031f8 <_dtoa_r+0x8c0>
 800320a:	f1b8 0f00 	cmp.w	r8, #0
 800320e:	dc37      	bgt.n	8003280 <_dtoa_r+0x948>
 8003210:	9b1e      	ldr	r3, [sp, #120]	; 0x78
 8003212:	2b02      	cmp	r3, #2
 8003214:	dd34      	ble.n	8003280 <_dtoa_r+0x948>
 8003216:	f8cd 8010 	str.w	r8, [sp, #16]
 800321a:	9b04      	ldr	r3, [sp, #16]
 800321c:	b963      	cbnz	r3, 8003238 <_dtoa_r+0x900>
 800321e:	4631      	mov	r1, r6
 8003220:	2205      	movs	r2, #5
 8003222:	4620      	mov	r0, r4
 8003224:	f000 fcec 	bl	8003c00 <__multadd>
 8003228:	4601      	mov	r1, r0
 800322a:	4606      	mov	r6, r0
 800322c:	4658      	mov	r0, fp
 800322e:	f000 feef 	bl	8004010 <__mcmp>
 8003232:	2800      	cmp	r0, #0
 8003234:	f73f add0 	bgt.w	8002dd8 <_dtoa_r+0x4a0>
 8003238:	9b1f      	ldr	r3, [sp, #124]	; 0x7c
 800323a:	9d06      	ldr	r5, [sp, #24]
 800323c:	ea6f 0a03 	mvn.w	sl, r3
 8003240:	f04f 0900 	mov.w	r9, #0
 8003244:	4631      	mov	r1, r6
 8003246:	4620      	mov	r0, r4
 8003248:	f000 fcc3 	bl	8003bd2 <_Bfree>
 800324c:	2f00      	cmp	r7, #0
 800324e:	f43f aebc 	beq.w	8002fca <_dtoa_r+0x692>
 8003252:	f1b9 0f00 	cmp.w	r9, #0
 8003256:	d005      	beq.n	8003264 <_dtoa_r+0x92c>
 8003258:	45b9      	cmp	r9, r7
 800325a:	d003      	beq.n	8003264 <_dtoa_r+0x92c>
 800325c:	4649      	mov	r1, r9
 800325e:	4620      	mov	r0, r4
 8003260:	f000 fcb7 	bl	8003bd2 <_Bfree>
 8003264:	4639      	mov	r1, r7
 8003266:	4620      	mov	r0, r4
 8003268:	f000 fcb3 	bl	8003bd2 <_Bfree>
 800326c:	e6ad      	b.n	8002fca <_dtoa_r+0x692>
 800326e:	2600      	movs	r6, #0
 8003270:	4637      	mov	r7, r6
 8003272:	e7e1      	b.n	8003238 <_dtoa_r+0x900>
 8003274:	46ba      	mov	sl, r7
 8003276:	4637      	mov	r7, r6
 8003278:	e5ae      	b.n	8002dd8 <_dtoa_r+0x4a0>
 800327a:	bf00      	nop
 800327c:	40240000 	.word	0x40240000
 8003280:	9b09      	ldr	r3, [sp, #36]	; 0x24
 8003282:	f8cd 8010 	str.w	r8, [sp, #16]
 8003286:	2b00      	cmp	r3, #0
 8003288:	f000 80f5 	beq.w	8003476 <_dtoa_r+0xb3e>
 800328c:	2d00      	cmp	r5, #0
 800328e:	dd05      	ble.n	800329c <_dtoa_r+0x964>
 8003290:	4639      	mov	r1, r7
 8003292:	462a      	mov	r2, r5
 8003294:	4620      	mov	r0, r4
 8003296:	f000 fe67 	bl	8003f68 <__lshift>
 800329a:	4607      	mov	r7, r0
 800329c:	9b08      	ldr	r3, [sp, #32]
 800329e:	2b00      	cmp	r3, #0
 80032a0:	d04c      	beq.n	800333c <_dtoa_r+0xa04>
 80032a2:	6879      	ldr	r1, [r7, #4]
 80032a4:	4620      	mov	r0, r4
 80032a6:	f000 fc60 	bl	8003b6a <_Balloc>
 80032aa:	693a      	ldr	r2, [r7, #16]
 80032ac:	3202      	adds	r2, #2
 80032ae:	4605      	mov	r5, r0
 80032b0:	0092      	lsls	r2, r2, #2
 80032b2:	f107 010c 	add.w	r1, r7, #12
 80032b6:	300c      	adds	r0, #12
 80032b8:	f000 fc4c 	bl	8003b54 <memcpy>
 80032bc:	2201      	movs	r2, #1
 80032be:	4629      	mov	r1, r5
 80032c0:	4620      	mov	r0, r4
 80032c2:	f000 fe51 	bl	8003f68 <__lshift>
 80032c6:	9b06      	ldr	r3, [sp, #24]
 80032c8:	9307      	str	r3, [sp, #28]
 80032ca:	9b02      	ldr	r3, [sp, #8]
 80032cc:	f003 0301 	and.w	r3, r3, #1
 80032d0:	46b9      	mov	r9, r7
 80032d2:	9308      	str	r3, [sp, #32]
 80032d4:	4607      	mov	r7, r0
 80032d6:	4631      	mov	r1, r6
 80032d8:	4658      	mov	r0, fp
 80032da:	f7ff fa9f 	bl	800281c <quorem>
 80032de:	4649      	mov	r1, r9
 80032e0:	4605      	mov	r5, r0
 80032e2:	f100 0830 	add.w	r8, r0, #48	; 0x30
 80032e6:	4658      	mov	r0, fp
 80032e8:	f000 fe92 	bl	8004010 <__mcmp>
 80032ec:	463a      	mov	r2, r7
 80032ee:	9002      	str	r0, [sp, #8]
 80032f0:	4631      	mov	r1, r6
 80032f2:	4620      	mov	r0, r4
 80032f4:	f000 fea6 	bl	8004044 <__mdiff>
 80032f8:	68c3      	ldr	r3, [r0, #12]
 80032fa:	4602      	mov	r2, r0
 80032fc:	bb03      	cbnz	r3, 8003340 <_dtoa_r+0xa08>
 80032fe:	4601      	mov	r1, r0
 8003300:	9009      	str	r0, [sp, #36]	; 0x24
 8003302:	4658      	mov	r0, fp
 8003304:	f000 fe84 	bl	8004010 <__mcmp>
 8003308:	9a09      	ldr	r2, [sp, #36]	; 0x24
 800330a:	4603      	mov	r3, r0
 800330c:	4611      	mov	r1, r2
 800330e:	4620      	mov	r0, r4
 8003310:	9309      	str	r3, [sp, #36]	; 0x24
 8003312:	f000 fc5e 	bl	8003bd2 <_Bfree>
 8003316:	9b09      	ldr	r3, [sp, #36]	; 0x24
 8003318:	b9a3      	cbnz	r3, 8003344 <_dtoa_r+0xa0c>
 800331a:	9a1e      	ldr	r2, [sp, #120]	; 0x78
 800331c:	b992      	cbnz	r2, 8003344 <_dtoa_r+0xa0c>
 800331e:	9a08      	ldr	r2, [sp, #32]
 8003320:	b982      	cbnz	r2, 8003344 <_dtoa_r+0xa0c>
 8003322:	f1b8 0f39 	cmp.w	r8, #57	; 0x39
 8003326:	d029      	beq.n	800337c <_dtoa_r+0xa44>
 8003328:	9b02      	ldr	r3, [sp, #8]
 800332a:	2b00      	cmp	r3, #0
 800332c:	dd01      	ble.n	8003332 <_dtoa_r+0x9fa>
 800332e:	f105 0831 	add.w	r8, r5, #49	; 0x31
 8003332:	9b07      	ldr	r3, [sp, #28]
 8003334:	1c5d      	adds	r5, r3, #1
 8003336:	f883 8000 	strb.w	r8, [r3]
 800333a:	e783      	b.n	8003244 <_dtoa_r+0x90c>
 800333c:	4638      	mov	r0, r7
 800333e:	e7c2      	b.n	80032c6 <_dtoa_r+0x98e>
 8003340:	2301      	movs	r3, #1
 8003342:	e7e3      	b.n	800330c <_dtoa_r+0x9d4>
 8003344:	9a02      	ldr	r2, [sp, #8]
 8003346:	2a00      	cmp	r2, #0
 8003348:	db04      	blt.n	8003354 <_dtoa_r+0xa1c>
 800334a:	d124      	bne.n	8003396 <_dtoa_r+0xa5e>
 800334c:	9a1e      	ldr	r2, [sp, #120]	; 0x78
 800334e:	bb12      	cbnz	r2, 8003396 <_dtoa_r+0xa5e>
 8003350:	9a08      	ldr	r2, [sp, #32]
 8003352:	bb02      	cbnz	r2, 8003396 <_dtoa_r+0xa5e>
 8003354:	2b00      	cmp	r3, #0
 8003356:	ddec      	ble.n	8003332 <_dtoa_r+0x9fa>
 8003358:	4659      	mov	r1, fp
 800335a:	2201      	movs	r2, #1
 800335c:	4620      	mov	r0, r4
 800335e:	f000 fe03 	bl	8003f68 <__lshift>
 8003362:	4631      	mov	r1, r6
 8003364:	4683      	mov	fp, r0
 8003366:	f000 fe53 	bl	8004010 <__mcmp>
 800336a:	2800      	cmp	r0, #0
 800336c:	dc03      	bgt.n	8003376 <_dtoa_r+0xa3e>
 800336e:	d1e0      	bne.n	8003332 <_dtoa_r+0x9fa>
 8003370:	f018 0f01 	tst.w	r8, #1
 8003374:	d0dd      	beq.n	8003332 <_dtoa_r+0x9fa>
 8003376:	f1b8 0f39 	cmp.w	r8, #57	; 0x39
 800337a:	d1d8      	bne.n	800332e <_dtoa_r+0x9f6>
 800337c:	9b07      	ldr	r3, [sp, #28]
 800337e:	9a07      	ldr	r2, [sp, #28]
 8003380:	1c5d      	adds	r5, r3, #1
 8003382:	2339      	movs	r3, #57	; 0x39
 8003384:	7013      	strb	r3, [r2, #0]
 8003386:	f815 3c01 	ldrb.w	r3, [r5, #-1]
 800338a:	2b39      	cmp	r3, #57	; 0x39
 800338c:	f105 32ff 	add.w	r2, r5, #4294967295
 8003390:	d04e      	beq.n	8003430 <_dtoa_r+0xaf8>
 8003392:	3301      	adds	r3, #1
 8003394:	e053      	b.n	800343e <_dtoa_r+0xb06>
 8003396:	9a07      	ldr	r2, [sp, #28]
 8003398:	2b00      	cmp	r3, #0
 800339a:	f102 0501 	add.w	r5, r2, #1
 800339e:	dd06      	ble.n	80033ae <_dtoa_r+0xa76>
 80033a0:	f1b8 0f39 	cmp.w	r8, #57	; 0x39
 80033a4:	d0ea      	beq.n	800337c <_dtoa_r+0xa44>
 80033a6:	f108 0801 	add.w	r8, r8, #1
 80033aa:	9b07      	ldr	r3, [sp, #28]
 80033ac:	e7c3      	b.n	8003336 <_dtoa_r+0x9fe>
 80033ae:	9b06      	ldr	r3, [sp, #24]
 80033b0:	9a04      	ldr	r2, [sp, #16]
 80033b2:	f805 8c01 	strb.w	r8, [r5, #-1]
 80033b6:	1aeb      	subs	r3, r5, r3
 80033b8:	4293      	cmp	r3, r2
 80033ba:	d021      	beq.n	8003400 <_dtoa_r+0xac8>
 80033bc:	4659      	mov	r1, fp
 80033be:	2300      	movs	r3, #0
 80033c0:	220a      	movs	r2, #10
 80033c2:	4620      	mov	r0, r4
 80033c4:	f000 fc1c 	bl	8003c00 <__multadd>
 80033c8:	45b9      	cmp	r9, r7
 80033ca:	4683      	mov	fp, r0
 80033cc:	f04f 0300 	mov.w	r3, #0
 80033d0:	f04f 020a 	mov.w	r2, #10
 80033d4:	4649      	mov	r1, r9
 80033d6:	4620      	mov	r0, r4
 80033d8:	d105      	bne.n	80033e6 <_dtoa_r+0xaae>
 80033da:	f000 fc11 	bl	8003c00 <__multadd>
 80033de:	4681      	mov	r9, r0
 80033e0:	4607      	mov	r7, r0
 80033e2:	9507      	str	r5, [sp, #28]
 80033e4:	e777      	b.n	80032d6 <_dtoa_r+0x99e>
 80033e6:	f000 fc0b 	bl	8003c00 <__multadd>
 80033ea:	4639      	mov	r1, r7
 80033ec:	4681      	mov	r9, r0
 80033ee:	2300      	movs	r3, #0
 80033f0:	220a      	movs	r2, #10
 80033f2:	4620      	mov	r0, r4
 80033f4:	f000 fc04 	bl	8003c00 <__multadd>
 80033f8:	4607      	mov	r7, r0
 80033fa:	e7f2      	b.n	80033e2 <_dtoa_r+0xaaa>
 80033fc:	f04f 0900 	mov.w	r9, #0
 8003400:	4659      	mov	r1, fp
 8003402:	2201      	movs	r2, #1
 8003404:	4620      	mov	r0, r4
 8003406:	f000 fdaf 	bl	8003f68 <__lshift>
 800340a:	4631      	mov	r1, r6
 800340c:	4683      	mov	fp, r0
 800340e:	f000 fdff 	bl	8004010 <__mcmp>
 8003412:	2800      	cmp	r0, #0
 8003414:	dcb7      	bgt.n	8003386 <_dtoa_r+0xa4e>
 8003416:	d102      	bne.n	800341e <_dtoa_r+0xae6>
 8003418:	f018 0f01 	tst.w	r8, #1
 800341c:	d1b3      	bne.n	8003386 <_dtoa_r+0xa4e>
 800341e:	f815 3c01 	ldrb.w	r3, [r5, #-1]
 8003422:	2b30      	cmp	r3, #48	; 0x30
 8003424:	f105 32ff 	add.w	r2, r5, #4294967295
 8003428:	f47f af0c 	bne.w	8003244 <_dtoa_r+0x90c>
 800342c:	4615      	mov	r5, r2
 800342e:	e7f6      	b.n	800341e <_dtoa_r+0xae6>
 8003430:	9b06      	ldr	r3, [sp, #24]
 8003432:	4293      	cmp	r3, r2
 8003434:	d105      	bne.n	8003442 <_dtoa_r+0xb0a>
 8003436:	9a06      	ldr	r2, [sp, #24]
 8003438:	f10a 0a01 	add.w	sl, sl, #1
 800343c:	2331      	movs	r3, #49	; 0x31
 800343e:	7013      	strb	r3, [r2, #0]
 8003440:	e700      	b.n	8003244 <_dtoa_r+0x90c>
 8003442:	4615      	mov	r5, r2
 8003444:	e79f      	b.n	8003386 <_dtoa_r+0xa4e>
 8003446:	4b17      	ldr	r3, [pc, #92]	; (80034a4 <_dtoa_r+0xb6c>)
 8003448:	f7ff badb 	b.w	8002a02 <_dtoa_r+0xca>
 800344c:	9b22      	ldr	r3, [sp, #136]	; 0x88
 800344e:	2b00      	cmp	r3, #0
 8003450:	f47f aab5 	bne.w	80029be <_dtoa_r+0x86>
 8003454:	4b14      	ldr	r3, [pc, #80]	; (80034a8 <_dtoa_r+0xb70>)
 8003456:	f7ff bad4 	b.w	8002a02 <_dtoa_r+0xca>
 800345a:	9b1e      	ldr	r3, [sp, #120]	; 0x78
 800345c:	2b01      	cmp	r3, #1
 800345e:	f77f ae3c 	ble.w	80030da <_dtoa_r+0x7a2>
 8003462:	9b0c      	ldr	r3, [sp, #48]	; 0x30
 8003464:	9308      	str	r3, [sp, #32]
 8003466:	e650      	b.n	800310a <_dtoa_r+0x7d2>
 8003468:	9b04      	ldr	r3, [sp, #16]
 800346a:	2b00      	cmp	r3, #0
 800346c:	dc03      	bgt.n	8003476 <_dtoa_r+0xb3e>
 800346e:	9b1e      	ldr	r3, [sp, #120]	; 0x78
 8003470:	2b02      	cmp	r3, #2
 8003472:	f73f aed2 	bgt.w	800321a <_dtoa_r+0x8e2>
 8003476:	9d06      	ldr	r5, [sp, #24]
 8003478:	4631      	mov	r1, r6
 800347a:	4658      	mov	r0, fp
 800347c:	f7ff f9ce 	bl	800281c <quorem>
 8003480:	f100 0830 	add.w	r8, r0, #48	; 0x30
 8003484:	f805 8b01 	strb.w	r8, [r5], #1
 8003488:	9b06      	ldr	r3, [sp, #24]
 800348a:	9a04      	ldr	r2, [sp, #16]
 800348c:	1aeb      	subs	r3, r5, r3
 800348e:	429a      	cmp	r2, r3
 8003490:	ddb4      	ble.n	80033fc <_dtoa_r+0xac4>
 8003492:	4659      	mov	r1, fp
 8003494:	2300      	movs	r3, #0
 8003496:	220a      	movs	r2, #10
 8003498:	4620      	mov	r0, r4
 800349a:	f000 fbb1 	bl	8003c00 <__multadd>
 800349e:	4683      	mov	fp, r0
 80034a0:	e7ea      	b.n	8003478 <_dtoa_r+0xb40>
 80034a2:	bf00      	nop
 80034a4:	08004888 	.word	0x08004888
 80034a8:	08004908 	.word	0x08004908

080034ac <rshift>:
 80034ac:	b5f0      	push	{r4, r5, r6, r7, lr}
 80034ae:	6906      	ldr	r6, [r0, #16]
 80034b0:	114b      	asrs	r3, r1, #5
 80034b2:	429e      	cmp	r6, r3
 80034b4:	f100 0414 	add.w	r4, r0, #20
 80034b8:	dd30      	ble.n	800351c <rshift+0x70>
 80034ba:	f011 011f 	ands.w	r1, r1, #31
 80034be:	eb04 0686 	add.w	r6, r4, r6, lsl #2
 80034c2:	eb04 0283 	add.w	r2, r4, r3, lsl #2
 80034c6:	d108      	bne.n	80034da <rshift+0x2e>
 80034c8:	4621      	mov	r1, r4
 80034ca:	42b2      	cmp	r2, r6
 80034cc:	460b      	mov	r3, r1
 80034ce:	d211      	bcs.n	80034f4 <rshift+0x48>
 80034d0:	f852 3b04 	ldr.w	r3, [r2], #4
 80034d4:	f841 3b04 	str.w	r3, [r1], #4
 80034d8:	e7f7      	b.n	80034ca <rshift+0x1e>
 80034da:	f854 5023 	ldr.w	r5, [r4, r3, lsl #2]
 80034de:	f1c1 0c20 	rsb	ip, r1, #32
 80034e2:	40cd      	lsrs	r5, r1
 80034e4:	3204      	adds	r2, #4
 80034e6:	4623      	mov	r3, r4
 80034e8:	42b2      	cmp	r2, r6
 80034ea:	4617      	mov	r7, r2
 80034ec:	d30c      	bcc.n	8003508 <rshift+0x5c>
 80034ee:	601d      	str	r5, [r3, #0]
 80034f0:	b105      	cbz	r5, 80034f4 <rshift+0x48>
 80034f2:	3304      	adds	r3, #4
 80034f4:	1b1a      	subs	r2, r3, r4
 80034f6:	42a3      	cmp	r3, r4
 80034f8:	ea4f 02a2 	mov.w	r2, r2, asr #2
 80034fc:	bf08      	it	eq
 80034fe:	2300      	moveq	r3, #0
 8003500:	6102      	str	r2, [r0, #16]
 8003502:	bf08      	it	eq
 8003504:	6143      	streq	r3, [r0, #20]
 8003506:	bdf0      	pop	{r4, r5, r6, r7, pc}
 8003508:	683f      	ldr	r7, [r7, #0]
 800350a:	fa07 f70c 	lsl.w	r7, r7, ip
 800350e:	433d      	orrs	r5, r7
 8003510:	f843 5b04 	str.w	r5, [r3], #4
 8003514:	f852 5b04 	ldr.w	r5, [r2], #4
 8003518:	40cd      	lsrs	r5, r1
 800351a:	e7e5      	b.n	80034e8 <rshift+0x3c>
 800351c:	4623      	mov	r3, r4
 800351e:	e7e9      	b.n	80034f4 <rshift+0x48>

08003520 <__hexdig_fun>:
 8003520:	f1a0 0330 	sub.w	r3, r0, #48	; 0x30
 8003524:	2b09      	cmp	r3, #9
 8003526:	d802      	bhi.n	800352e <__hexdig_fun+0xe>
 8003528:	3820      	subs	r0, #32
 800352a:	b2c0      	uxtb	r0, r0
 800352c:	4770      	bx	lr
 800352e:	f1a0 0361 	sub.w	r3, r0, #97	; 0x61
 8003532:	2b05      	cmp	r3, #5
 8003534:	d801      	bhi.n	800353a <__hexdig_fun+0x1a>
 8003536:	3847      	subs	r0, #71	; 0x47
 8003538:	e7f7      	b.n	800352a <__hexdig_fun+0xa>
 800353a:	f1a0 0341 	sub.w	r3, r0, #65	; 0x41
 800353e:	2b05      	cmp	r3, #5
 8003540:	d801      	bhi.n	8003546 <__hexdig_fun+0x26>
 8003542:	3827      	subs	r0, #39	; 0x27
 8003544:	e7f1      	b.n	800352a <__hexdig_fun+0xa>
 8003546:	2000      	movs	r0, #0
 8003548:	4770      	bx	lr

0800354a <__gethex>:
 800354a:	e92d 4ff0 	stmdb	sp!, {r4, r5, r6, r7, r8, r9, sl, fp, lr}
 800354e:	b08b      	sub	sp, #44	; 0x2c
 8003550:	468a      	mov	sl, r1
 8003552:	9002      	str	r0, [sp, #8]
 8003554:	9816      	ldr	r0, [sp, #88]	; 0x58
 8003556:	9306      	str	r3, [sp, #24]
 8003558:	4690      	mov	r8, r2
 800355a:	f000 fad0 	bl	8003afe <__localeconv_l>
 800355e:	6803      	ldr	r3, [r0, #0]
 8003560:	9303      	str	r3, [sp, #12]
 8003562:	4618      	mov	r0, r3
 8003564:	f7fc fe54 	bl	8000210 <strlen>
 8003568:	9b03      	ldr	r3, [sp, #12]
 800356a:	9001      	str	r0, [sp, #4]
 800356c:	4403      	add	r3, r0
 800356e:	f04f 0b00 	mov.w	fp, #0
 8003572:	f813 3c01 	ldrb.w	r3, [r3, #-1]
 8003576:	9307      	str	r3, [sp, #28]
 8003578:	f8da 3000 	ldr.w	r3, [sl]
 800357c:	3302      	adds	r3, #2
 800357e:	461f      	mov	r7, r3
 8003580:	f813 0b01 	ldrb.w	r0, [r3], #1
 8003584:	2830      	cmp	r0, #48	; 0x30
 8003586:	d06c      	beq.n	8003662 <__gethex+0x118>
 8003588:	f7ff ffca 	bl	8003520 <__hexdig_fun>
 800358c:	4604      	mov	r4, r0
 800358e:	2800      	cmp	r0, #0
 8003590:	d16a      	bne.n	8003668 <__gethex+0x11e>
 8003592:	9a01      	ldr	r2, [sp, #4]
 8003594:	9903      	ldr	r1, [sp, #12]
 8003596:	4638      	mov	r0, r7
 8003598:	f001 f8f8 	bl	800478c <strncmp>
 800359c:	2800      	cmp	r0, #0
 800359e:	d166      	bne.n	800366e <__gethex+0x124>
 80035a0:	9b01      	ldr	r3, [sp, #4]
 80035a2:	5cf8      	ldrb	r0, [r7, r3]
 80035a4:	18fe      	adds	r6, r7, r3
 80035a6:	f7ff ffbb 	bl	8003520 <__hexdig_fun>
 80035aa:	2800      	cmp	r0, #0
 80035ac:	d062      	beq.n	8003674 <__gethex+0x12a>
 80035ae:	4633      	mov	r3, r6
 80035b0:	7818      	ldrb	r0, [r3, #0]
 80035b2:	2830      	cmp	r0, #48	; 0x30
 80035b4:	461f      	mov	r7, r3
 80035b6:	f103 0301 	add.w	r3, r3, #1
 80035ba:	d0f9      	beq.n	80035b0 <__gethex+0x66>
 80035bc:	f7ff ffb0 	bl	8003520 <__hexdig_fun>
 80035c0:	fab0 f580 	clz	r5, r0
 80035c4:	096d      	lsrs	r5, r5, #5
 80035c6:	4634      	mov	r4, r6
 80035c8:	f04f 0b01 	mov.w	fp, #1
 80035cc:	463a      	mov	r2, r7
 80035ce:	4616      	mov	r6, r2
 80035d0:	3201      	adds	r2, #1
 80035d2:	7830      	ldrb	r0, [r6, #0]
 80035d4:	f7ff ffa4 	bl	8003520 <__hexdig_fun>
 80035d8:	2800      	cmp	r0, #0
 80035da:	d1f8      	bne.n	80035ce <__gethex+0x84>
 80035dc:	9a01      	ldr	r2, [sp, #4]
 80035de:	9903      	ldr	r1, [sp, #12]
 80035e0:	4630      	mov	r0, r6
 80035e2:	f001 f8d3 	bl	800478c <strncmp>
 80035e6:	b950      	cbnz	r0, 80035fe <__gethex+0xb4>
 80035e8:	b954      	cbnz	r4, 8003600 <__gethex+0xb6>
 80035ea:	9b01      	ldr	r3, [sp, #4]
 80035ec:	18f4      	adds	r4, r6, r3
 80035ee:	4622      	mov	r2, r4
 80035f0:	4616      	mov	r6, r2
 80035f2:	3201      	adds	r2, #1
 80035f4:	7830      	ldrb	r0, [r6, #0]
 80035f6:	f7ff ff93 	bl	8003520 <__hexdig_fun>
 80035fa:	2800      	cmp	r0, #0
 80035fc:	d1f8      	bne.n	80035f0 <__gethex+0xa6>
 80035fe:	b10c      	cbz	r4, 8003604 <__gethex+0xba>
 8003600:	1ba4      	subs	r4, r4, r6
 8003602:	00a4      	lsls	r4, r4, #2
 8003604:	7833      	ldrb	r3, [r6, #0]
 8003606:	2b50      	cmp	r3, #80	; 0x50
 8003608:	d001      	beq.n	800360e <__gethex+0xc4>
 800360a:	2b70      	cmp	r3, #112	; 0x70
 800360c:	d140      	bne.n	8003690 <__gethex+0x146>
 800360e:	7873      	ldrb	r3, [r6, #1]
 8003610:	2b2b      	cmp	r3, #43	; 0x2b
 8003612:	d031      	beq.n	8003678 <__gethex+0x12e>
 8003614:	2b2d      	cmp	r3, #45	; 0x2d
 8003616:	d033      	beq.n	8003680 <__gethex+0x136>
 8003618:	1c71      	adds	r1, r6, #1
 800361a:	f04f 0900 	mov.w	r9, #0
 800361e:	7808      	ldrb	r0, [r1, #0]
 8003620:	f7ff ff7e 	bl	8003520 <__hexdig_fun>
 8003624:	1e43      	subs	r3, r0, #1
 8003626:	b2db      	uxtb	r3, r3
 8003628:	2b18      	cmp	r3, #24
 800362a:	d831      	bhi.n	8003690 <__gethex+0x146>
 800362c:	f1a0 0210 	sub.w	r2, r0, #16
 8003630:	f811 0f01 	ldrb.w	r0, [r1, #1]!
 8003634:	f7ff ff74 	bl	8003520 <__hexdig_fun>
 8003638:	1e43      	subs	r3, r0, #1
 800363a:	b2db      	uxtb	r3, r3
 800363c:	2b18      	cmp	r3, #24
 800363e:	d922      	bls.n	8003686 <__gethex+0x13c>
 8003640:	f1b9 0f00 	cmp.w	r9, #0
 8003644:	d000      	beq.n	8003648 <__gethex+0xfe>
 8003646:	4252      	negs	r2, r2
 8003648:	4414      	add	r4, r2
 800364a:	f8ca 1000 	str.w	r1, [sl]
 800364e:	b30d      	cbz	r5, 8003694 <__gethex+0x14a>
 8003650:	f1bb 0f00 	cmp.w	fp, #0
 8003654:	bf0c      	ite	eq
 8003656:	2706      	moveq	r7, #6
 8003658:	2700      	movne	r7, #0
 800365a:	4638      	mov	r0, r7
 800365c:	b00b      	add	sp, #44	; 0x2c
 800365e:	e8bd 8ff0 	ldmia.w	sp!, {r4, r5, r6, r7, r8, r9, sl, fp, pc}
 8003662:	f10b 0b01 	add.w	fp, fp, #1
 8003666:	e78a      	b.n	800357e <__gethex+0x34>
 8003668:	2500      	movs	r5, #0
 800366a:	462c      	mov	r4, r5
 800366c:	e7ae      	b.n	80035cc <__gethex+0x82>
 800366e:	463e      	mov	r6, r7
 8003670:	2501      	movs	r5, #1
 8003672:	e7c7      	b.n	8003604 <__gethex+0xba>
 8003674:	4604      	mov	r4, r0
 8003676:	e7fb      	b.n	8003670 <__gethex+0x126>
 8003678:	f04f 0900 	mov.w	r9, #0
 800367c:	1cb1      	adds	r1, r6, #2
 800367e:	e7ce      	b.n	800361e <__gethex+0xd4>
 8003680:	f04f 0901 	mov.w	r9, #1
 8003684:	e7fa      	b.n	800367c <__gethex+0x132>
 8003686:	230a      	movs	r3, #10
 8003688:	fb03 0202 	mla	r2, r3, r2, r0
 800368c:	3a10      	subs	r2, #16
 800368e:	e7cf      	b.n	8003630 <__gethex+0xe6>
 8003690:	4631      	mov	r1, r6
 8003692:	e7da      	b.n	800364a <__gethex+0x100>
 8003694:	1bf3      	subs	r3, r6, r7
 8003696:	3b01      	subs	r3, #1
 8003698:	4629      	mov	r1, r5
 800369a:	2b07      	cmp	r3, #7
 800369c:	dc49      	bgt.n	8003732 <__gethex+0x1e8>
 800369e:	9802      	ldr	r0, [sp, #8]
 80036a0:	f000 fa63 	bl	8003b6a <_Balloc>
 80036a4:	9b01      	ldr	r3, [sp, #4]
 80036a6:	f100 0914 	add.w	r9, r0, #20
 80036aa:	f04f 0b00 	mov.w	fp, #0
 80036ae:	f1c3 0301 	rsb	r3, r3, #1
 80036b2:	4605      	mov	r5, r0
 80036b4:	f8cd 9010 	str.w	r9, [sp, #16]
 80036b8:	46da      	mov	sl, fp
 80036ba:	9308      	str	r3, [sp, #32]
 80036bc:	42b7      	cmp	r7, r6
 80036be:	d33b      	bcc.n	8003738 <__gethex+0x1ee>
 80036c0:	9804      	ldr	r0, [sp, #16]
 80036c2:	f840 ab04 	str.w	sl, [r0], #4
 80036c6:	eba0 0009 	sub.w	r0, r0, r9
 80036ca:	1080      	asrs	r0, r0, #2
 80036cc:	6128      	str	r0, [r5, #16]
 80036ce:	0147      	lsls	r7, r0, #5
 80036d0:	4650      	mov	r0, sl
 80036d2:	f000 fb0e 	bl	8003cf2 <__hi0bits>
 80036d6:	f8d8 6000 	ldr.w	r6, [r8]
 80036da:	1a3f      	subs	r7, r7, r0
 80036dc:	42b7      	cmp	r7, r6
 80036de:	dd64      	ble.n	80037aa <__gethex+0x260>
 80036e0:	1bbf      	subs	r7, r7, r6
 80036e2:	4639      	mov	r1, r7
 80036e4:	4628      	mov	r0, r5
 80036e6:	f000 fe18 	bl	800431a <__any_on>
 80036ea:	4682      	mov	sl, r0
 80036ec:	b178      	cbz	r0, 800370e <__gethex+0x1c4>
 80036ee:	1e7b      	subs	r3, r7, #1
 80036f0:	1159      	asrs	r1, r3, #5
 80036f2:	f003 021f 	and.w	r2, r3, #31
 80036f6:	f04f 0a01 	mov.w	sl, #1
 80036fa:	f859 1021 	ldr.w	r1, [r9, r1, lsl #2]
 80036fe:	fa0a f202 	lsl.w	r2, sl, r2
 8003702:	420a      	tst	r2, r1
 8003704:	d003      	beq.n	800370e <__gethex+0x1c4>
 8003706:	4553      	cmp	r3, sl
 8003708:	dc46      	bgt.n	8003798 <__gethex+0x24e>
 800370a:	f04f 0a02 	mov.w	sl, #2
 800370e:	4639      	mov	r1, r7
 8003710:	4628      	mov	r0, r5
 8003712:	f7ff fecb 	bl	80034ac <rshift>
 8003716:	443c      	add	r4, r7
 8003718:	f8d8 3008 	ldr.w	r3, [r8, #8]
 800371c:	42a3      	cmp	r3, r4
 800371e:	da52      	bge.n	80037c6 <__gethex+0x27c>
 8003720:	4629      	mov	r1, r5
 8003722:	9802      	ldr	r0, [sp, #8]
 8003724:	f000 fa55 	bl	8003bd2 <_Bfree>
 8003728:	9a14      	ldr	r2, [sp, #80]	; 0x50
 800372a:	2300      	movs	r3, #0
 800372c:	6013      	str	r3, [r2, #0]
 800372e:	27a3      	movs	r7, #163	; 0xa3
 8003730:	e793      	b.n	800365a <__gethex+0x110>
 8003732:	3101      	adds	r1, #1
 8003734:	105b      	asrs	r3, r3, #1
 8003736:	e7b0      	b.n	800369a <__gethex+0x150>
 8003738:	1e73      	subs	r3, r6, #1
 800373a:	9305      	str	r3, [sp, #20]
 800373c:	9a07      	ldr	r2, [sp, #28]
 800373e:	f816 3c01 	ldrb.w	r3, [r6, #-1]
 8003742:	4293      	cmp	r3, r2
 8003744:	d018      	beq.n	8003778 <__gethex+0x22e>
 8003746:	f1bb 0f20 	cmp.w	fp, #32
 800374a:	d107      	bne.n	800375c <__gethex+0x212>
 800374c:	9b04      	ldr	r3, [sp, #16]
 800374e:	f8c3 a000 	str.w	sl, [r3]
 8003752:	3304      	adds	r3, #4
 8003754:	f04f 0a00 	mov.w	sl, #0
 8003758:	9304      	str	r3, [sp, #16]
 800375a:	46d3      	mov	fp, sl
 800375c:	f816 0c01 	ldrb.w	r0, [r6, #-1]
 8003760:	f7ff fede 	bl	8003520 <__hexdig_fun>
 8003764:	f000 000f 	and.w	r0, r0, #15
 8003768:	fa00 f00b 	lsl.w	r0, r0, fp
 800376c:	ea4a 0a00 	orr.w	sl, sl, r0
 8003770:	f10b 0b04 	add.w	fp, fp, #4
 8003774:	9b05      	ldr	r3, [sp, #20]
 8003776:	e00d      	b.n	8003794 <__gethex+0x24a>
 8003778:	9b05      	ldr	r3, [sp, #20]
 800377a:	9a08      	ldr	r2, [sp, #32]
 800377c:	4413      	add	r3, r2
 800377e:	42bb      	cmp	r3, r7
 8003780:	d3e1      	bcc.n	8003746 <__gethex+0x1fc>
 8003782:	4618      	mov	r0, r3
 8003784:	9a01      	ldr	r2, [sp, #4]
 8003786:	9903      	ldr	r1, [sp, #12]
 8003788:	9309      	str	r3, [sp, #36]	; 0x24
 800378a:	f000 ffff 	bl	800478c <strncmp>
 800378e:	9b09      	ldr	r3, [sp, #36]	; 0x24
 8003790:	2800      	cmp	r0, #0
 8003792:	d1d8      	bne.n	8003746 <__gethex+0x1fc>
 8003794:	461e      	mov	r6, r3
 8003796:	e791      	b.n	80036bc <__gethex+0x172>
 8003798:	1eb9      	subs	r1, r7, #2
 800379a:	4628      	mov	r0, r5
 800379c:	f000 fdbd 	bl	800431a <__any_on>
 80037a0:	2800      	cmp	r0, #0
 80037a2:	d0b2      	beq.n	800370a <__gethex+0x1c0>
 80037a4:	f04f 0a03 	mov.w	sl, #3
 80037a8:	e7b1      	b.n	800370e <__gethex+0x1c4>
 80037aa:	da09      	bge.n	80037c0 <__gethex+0x276>
 80037ac:	1bf7      	subs	r7, r6, r7
 80037ae:	4629      	mov	r1, r5
 80037b0:	463a      	mov	r2, r7
 80037b2:	9802      	ldr	r0, [sp, #8]
 80037b4:	f000 fbd8 	bl	8003f68 <__lshift>
 80037b8:	1be4      	subs	r4, r4, r7
 80037ba:	4605      	mov	r5, r0
 80037bc:	f100 0914 	add.w	r9, r0, #20
 80037c0:	f04f 0a00 	mov.w	sl, #0
 80037c4:	e7a8      	b.n	8003718 <__gethex+0x1ce>
 80037c6:	f8d8 0004 	ldr.w	r0, [r8, #4]
 80037ca:	42a0      	cmp	r0, r4
 80037cc:	dd6a      	ble.n	80038a4 <__gethex+0x35a>
 80037ce:	1b04      	subs	r4, r0, r4
 80037d0:	42a6      	cmp	r6, r4
 80037d2:	dc2e      	bgt.n	8003832 <__gethex+0x2e8>
 80037d4:	f8d8 300c 	ldr.w	r3, [r8, #12]
 80037d8:	2b02      	cmp	r3, #2
 80037da:	d022      	beq.n	8003822 <__gethex+0x2d8>
 80037dc:	2b03      	cmp	r3, #3
 80037de:	d024      	beq.n	800382a <__gethex+0x2e0>
 80037e0:	2b01      	cmp	r3, #1
 80037e2:	d115      	bne.n	8003810 <__gethex+0x2c6>
 80037e4:	42a6      	cmp	r6, r4
 80037e6:	d113      	bne.n	8003810 <__gethex+0x2c6>
 80037e8:	2e01      	cmp	r6, #1
 80037ea:	dc0b      	bgt.n	8003804 <__gethex+0x2ba>
 80037ec:	9a06      	ldr	r2, [sp, #24]
 80037ee:	f8d8 3004 	ldr.w	r3, [r8, #4]
 80037f2:	6013      	str	r3, [r2, #0]
 80037f4:	2301      	movs	r3, #1
 80037f6:	612b      	str	r3, [r5, #16]
 80037f8:	f8c9 3000 	str.w	r3, [r9]
 80037fc:	9b14      	ldr	r3, [sp, #80]	; 0x50
 80037fe:	2762      	movs	r7, #98	; 0x62
 8003800:	601d      	str	r5, [r3, #0]
 8003802:	e72a      	b.n	800365a <__gethex+0x110>
 8003804:	1e71      	subs	r1, r6, #1
 8003806:	4628      	mov	r0, r5
 8003808:	f000 fd87 	bl	800431a <__any_on>
 800380c:	2800      	cmp	r0, #0
 800380e:	d1ed      	bne.n	80037ec <__gethex+0x2a2>
 8003810:	4629      	mov	r1, r5
 8003812:	9802      	ldr	r0, [sp, #8]
 8003814:	f000 f9dd 	bl	8003bd2 <_Bfree>
 8003818:	9a14      	ldr	r2, [sp, #80]	; 0x50
 800381a:	2300      	movs	r3, #0
 800381c:	6013      	str	r3, [r2, #0]
 800381e:	2750      	movs	r7, #80	; 0x50
 8003820:	e71b      	b.n	800365a <__gethex+0x110>
 8003822:	9b15      	ldr	r3, [sp, #84]	; 0x54
 8003824:	2b00      	cmp	r3, #0
 8003826:	d0e1      	beq.n	80037ec <__gethex+0x2a2>
 8003828:	e7f2      	b.n	8003810 <__gethex+0x2c6>
 800382a:	9b15      	ldr	r3, [sp, #84]	; 0x54
 800382c:	2b00      	cmp	r3, #0
 800382e:	d1dd      	bne.n	80037ec <__gethex+0x2a2>
 8003830:	e7ee      	b.n	8003810 <__gethex+0x2c6>
 8003832:	1e67      	subs	r7, r4, #1
 8003834:	f1ba 0f00 	cmp.w	sl, #0
 8003838:	d131      	bne.n	800389e <__gethex+0x354>
 800383a:	b127      	cbz	r7, 8003846 <__gethex+0x2fc>
 800383c:	4639      	mov	r1, r7
 800383e:	4628      	mov	r0, r5
 8003840:	f000 fd6b 	bl	800431a <__any_on>
 8003844:	4682      	mov	sl, r0
 8003846:	117a      	asrs	r2, r7, #5
 8003848:	2301      	movs	r3, #1
 800384a:	f007 071f 	and.w	r7, r7, #31
 800384e:	fa03 f707 	lsl.w	r7, r3, r7
 8003852:	f859 3022 	ldr.w	r3, [r9, r2, lsl #2]
 8003856:	4621      	mov	r1, r4
 8003858:	421f      	tst	r7, r3
 800385a:	4628      	mov	r0, r5
 800385c:	bf18      	it	ne
 800385e:	f04a 0a02 	orrne.w	sl, sl, #2
 8003862:	1b36      	subs	r6, r6, r4
 8003864:	f7ff fe22 	bl	80034ac <rshift>
 8003868:	f8d8 4004 	ldr.w	r4, [r8, #4]
 800386c:	2702      	movs	r7, #2
 800386e:	f1ba 0f00 	cmp.w	sl, #0
 8003872:	d048      	beq.n	8003906 <__gethex+0x3bc>
 8003874:	f8d8 300c 	ldr.w	r3, [r8, #12]
 8003878:	2b02      	cmp	r3, #2
 800387a:	d015      	beq.n	80038a8 <__gethex+0x35e>
 800387c:	2b03      	cmp	r3, #3
 800387e:	d017      	beq.n	80038b0 <__gethex+0x366>
 8003880:	2b01      	cmp	r3, #1
 8003882:	d109      	bne.n	8003898 <__gethex+0x34e>
 8003884:	f01a 0f02 	tst.w	sl, #2
 8003888:	d006      	beq.n	8003898 <__gethex+0x34e>
 800388a:	f8d9 3000 	ldr.w	r3, [r9]
 800388e:	ea4a 0a03 	orr.w	sl, sl, r3
 8003892:	f01a 0f01 	tst.w	sl, #1
 8003896:	d10e      	bne.n	80038b6 <__gethex+0x36c>
 8003898:	f047 0710 	orr.w	r7, r7, #16
 800389c:	e033      	b.n	8003906 <__gethex+0x3bc>
 800389e:	f04f 0a01 	mov.w	sl, #1
 80038a2:	e7d0      	b.n	8003846 <__gethex+0x2fc>
 80038a4:	2701      	movs	r7, #1
 80038a6:	e7e2      	b.n	800386e <__gethex+0x324>
 80038a8:	9b15      	ldr	r3, [sp, #84]	; 0x54
 80038aa:	f1c3 0301 	rsb	r3, r3, #1
 80038ae:	9315      	str	r3, [sp, #84]	; 0x54
 80038b0:	9b15      	ldr	r3, [sp, #84]	; 0x54
 80038b2:	2b00      	cmp	r3, #0
 80038b4:	d0f0      	beq.n	8003898 <__gethex+0x34e>
 80038b6:	f8d5 9010 	ldr.w	r9, [r5, #16]
 80038ba:	f105 0314 	add.w	r3, r5, #20
 80038be:	ea4f 0a89 	mov.w	sl, r9, lsl #2
 80038c2:	eb03 010a 	add.w	r1, r3, sl
 80038c6:	f04f 0c00 	mov.w	ip, #0
 80038ca:	4618      	mov	r0, r3
 80038cc:	f853 2b04 	ldr.w	r2, [r3], #4
 80038d0:	f1b2 3fff 	cmp.w	r2, #4294967295
 80038d4:	d01c      	beq.n	8003910 <__gethex+0x3c6>
 80038d6:	3201      	adds	r2, #1
 80038d8:	6002      	str	r2, [r0, #0]
 80038da:	2f02      	cmp	r7, #2
 80038dc:	f105 0314 	add.w	r3, r5, #20
 80038e0:	d138      	bne.n	8003954 <__gethex+0x40a>
 80038e2:	f8d8 2000 	ldr.w	r2, [r8]
 80038e6:	3a01      	subs	r2, #1
 80038e8:	42b2      	cmp	r2, r6
 80038ea:	d10a      	bne.n	8003902 <__gethex+0x3b8>
 80038ec:	1171      	asrs	r1, r6, #5
 80038ee:	2201      	movs	r2, #1
 80038f0:	f006 061f 	and.w	r6, r6, #31
 80038f4:	f853 3021 	ldr.w	r3, [r3, r1, lsl #2]
 80038f8:	fa02 f606 	lsl.w	r6, r2, r6
 80038fc:	421e      	tst	r6, r3
 80038fe:	bf18      	it	ne
 8003900:	4617      	movne	r7, r2
 8003902:	f047 0720 	orr.w	r7, r7, #32
 8003906:	9b14      	ldr	r3, [sp, #80]	; 0x50
 8003908:	601d      	str	r5, [r3, #0]
 800390a:	9b06      	ldr	r3, [sp, #24]
 800390c:	601c      	str	r4, [r3, #0]
 800390e:	e6a4      	b.n	800365a <__gethex+0x110>
 8003910:	4299      	cmp	r1, r3
 8003912:	f843 cc04 	str.w	ip, [r3, #-4]
 8003916:	d8d8      	bhi.n	80038ca <__gethex+0x380>
 8003918:	68ab      	ldr	r3, [r5, #8]
 800391a:	4599      	cmp	r9, r3
 800391c:	db12      	blt.n	8003944 <__gethex+0x3fa>
 800391e:	6869      	ldr	r1, [r5, #4]
 8003920:	9802      	ldr	r0, [sp, #8]
 8003922:	3101      	adds	r1, #1
 8003924:	f000 f921 	bl	8003b6a <_Balloc>
 8003928:	692a      	ldr	r2, [r5, #16]
 800392a:	3202      	adds	r2, #2
 800392c:	f105 010c 	add.w	r1, r5, #12
 8003930:	4683      	mov	fp, r0
 8003932:	0092      	lsls	r2, r2, #2
 8003934:	300c      	adds	r0, #12
 8003936:	f000 f90d 	bl	8003b54 <memcpy>
 800393a:	4629      	mov	r1, r5
 800393c:	9802      	ldr	r0, [sp, #8]
 800393e:	f000 f948 	bl	8003bd2 <_Bfree>
 8003942:	465d      	mov	r5, fp
 8003944:	692b      	ldr	r3, [r5, #16]
 8003946:	1c5a      	adds	r2, r3, #1
 8003948:	eb05 0383 	add.w	r3, r5, r3, lsl #2
 800394c:	612a      	str	r2, [r5, #16]
 800394e:	2201      	movs	r2, #1
 8003950:	615a      	str	r2, [r3, #20]
 8003952:	e7c2      	b.n	80038da <__gethex+0x390>
 8003954:	692a      	ldr	r2, [r5, #16]
 8003956:	454a      	cmp	r2, r9
 8003958:	dd0b      	ble.n	8003972 <__gethex+0x428>
 800395a:	2101      	movs	r1, #1
 800395c:	4628      	mov	r0, r5
 800395e:	f7ff fda5 	bl	80034ac <rshift>
 8003962:	f8d8 3008 	ldr.w	r3, [r8, #8]
 8003966:	3401      	adds	r4, #1
 8003968:	42a3      	cmp	r3, r4
 800396a:	f6ff aed9 	blt.w	8003720 <__gethex+0x1d6>
 800396e:	2701      	movs	r7, #1
 8003970:	e7c7      	b.n	8003902 <__gethex+0x3b8>
 8003972:	f016 061f 	ands.w	r6, r6, #31
 8003976:	d0fa      	beq.n	800396e <__gethex+0x424>
 8003978:	449a      	add	sl, r3
 800397a:	f1c6 0620 	rsb	r6, r6, #32
 800397e:	f85a 0c04 	ldr.w	r0, [sl, #-4]
 8003982:	f000 f9b6 	bl	8003cf2 <__hi0bits>
 8003986:	42b0      	cmp	r0, r6
 8003988:	dbe7      	blt.n	800395a <__gethex+0x410>
 800398a:	e7f0      	b.n	800396e <__gethex+0x424>

0800398c <L_shift>:
 800398c:	f1c2 0208 	rsb	r2, r2, #8
 8003990:	0092      	lsls	r2, r2, #2
 8003992:	b570      	push	{r4, r5, r6, lr}
 8003994:	f1c2 0620 	rsb	r6, r2, #32
 8003998:	6843      	ldr	r3, [r0, #4]
 800399a:	6804      	ldr	r4, [r0, #0]
 800399c:	fa03 f506 	lsl.w	r5, r3, r6
 80039a0:	432c      	orrs	r4, r5
 80039a2:	40d3      	lsrs	r3, r2
 80039a4:	6004      	str	r4, [r0, #0]
 80039a6:	f840 3f04 	str.w	r3, [r0, #4]!
 80039aa:	4288      	cmp	r0, r1
 80039ac:	d3f4      	bcc.n	8003998 <L_shift+0xc>
 80039ae:	bd70      	pop	{r4, r5, r6, pc}

080039b0 <__match>:
 80039b0:	b530      	push	{r4, r5, lr}
 80039b2:	6803      	ldr	r3, [r0, #0]
 80039b4:	3301      	adds	r3, #1
 80039b6:	f811 4b01 	ldrb.w	r4, [r1], #1
 80039ba:	b914      	cbnz	r4, 80039c2 <__match+0x12>
 80039bc:	6003      	str	r3, [r0, #0]
 80039be:	2001      	movs	r0, #1
 80039c0:	bd30      	pop	{r4, r5, pc}
 80039c2:	f813 2b01 	ldrb.w	r2, [r3], #1
 80039c6:	f1a2 0541 	sub.w	r5, r2, #65	; 0x41
 80039ca:	2d19      	cmp	r5, #25
 80039cc:	bf98      	it	ls
 80039ce:	3220      	addls	r2, #32
 80039d0:	42a2      	cmp	r2, r4
 80039d2:	d0f0      	beq.n	80039b6 <__match+0x6>
 80039d4:	2000      	movs	r0, #0
 80039d6:	e7f3      	b.n	80039c0 <__match+0x10>

080039d8 <__hexnan>:
 80039d8:	e92d 4ff0 	stmdb	sp!, {r4, r5, r6, r7, r8, r9, sl, fp, lr}
 80039dc:	680b      	ldr	r3, [r1, #0]
 80039de:	6801      	ldr	r1, [r0, #0]
 80039e0:	115f      	asrs	r7, r3, #5
 80039e2:	eb02 0787 	add.w	r7, r2, r7, lsl #2
 80039e6:	f013 031f 	ands.w	r3, r3, #31
 80039ea:	b087      	sub	sp, #28
 80039ec:	bf18      	it	ne
 80039ee:	3704      	addne	r7, #4
 80039f0:	2500      	movs	r5, #0
 80039f2:	1f3e      	subs	r6, r7, #4
 80039f4:	4682      	mov	sl, r0
 80039f6:	4690      	mov	r8, r2
 80039f8:	9301      	str	r3, [sp, #4]
 80039fa:	f847 5c04 	str.w	r5, [r7, #-4]
 80039fe:	46b1      	mov	r9, r6
 8003a00:	4634      	mov	r4, r6
 8003a02:	9502      	str	r5, [sp, #8]
 8003a04:	46ab      	mov	fp, r5
 8003a06:	784a      	ldrb	r2, [r1, #1]
 8003a08:	1c4b      	adds	r3, r1, #1
 8003a0a:	9303      	str	r3, [sp, #12]
 8003a0c:	b342      	cbz	r2, 8003a60 <__hexnan+0x88>
 8003a0e:	4610      	mov	r0, r2
 8003a10:	9105      	str	r1, [sp, #20]
 8003a12:	9204      	str	r2, [sp, #16]
 8003a14:	f7ff fd84 	bl	8003520 <__hexdig_fun>
 8003a18:	2800      	cmp	r0, #0
 8003a1a:	d143      	bne.n	8003aa4 <__hexnan+0xcc>
 8003a1c:	9a04      	ldr	r2, [sp, #16]
 8003a1e:	9905      	ldr	r1, [sp, #20]
 8003a20:	2a20      	cmp	r2, #32
 8003a22:	d818      	bhi.n	8003a56 <__hexnan+0x7e>
 8003a24:	9b02      	ldr	r3, [sp, #8]
 8003a26:	459b      	cmp	fp, r3
 8003a28:	dd13      	ble.n	8003a52 <__hexnan+0x7a>
 8003a2a:	454c      	cmp	r4, r9
 8003a2c:	d206      	bcs.n	8003a3c <__hexnan+0x64>
 8003a2e:	2d07      	cmp	r5, #7
 8003a30:	dc04      	bgt.n	8003a3c <__hexnan+0x64>
 8003a32:	462a      	mov	r2, r5
 8003a34:	4649      	mov	r1, r9
 8003a36:	4620      	mov	r0, r4
 8003a38:	f7ff ffa8 	bl	800398c <L_shift>
 8003a3c:	4544      	cmp	r4, r8
 8003a3e:	d944      	bls.n	8003aca <__hexnan+0xf2>
 8003a40:	2300      	movs	r3, #0
 8003a42:	f1a4 0904 	sub.w	r9, r4, #4
 8003a46:	f844 3c04 	str.w	r3, [r4, #-4]
 8003a4a:	f8cd b008 	str.w	fp, [sp, #8]
 8003a4e:	464c      	mov	r4, r9
 8003a50:	461d      	mov	r5, r3
 8003a52:	9903      	ldr	r1, [sp, #12]
 8003a54:	e7d7      	b.n	8003a06 <__hexnan+0x2e>
 8003a56:	2a29      	cmp	r2, #41	; 0x29
 8003a58:	d14a      	bne.n	8003af0 <__hexnan+0x118>
 8003a5a:	3102      	adds	r1, #2
 8003a5c:	f8ca 1000 	str.w	r1, [sl]
 8003a60:	f1bb 0f00 	cmp.w	fp, #0
 8003a64:	d044      	beq.n	8003af0 <__hexnan+0x118>
 8003a66:	454c      	cmp	r4, r9
 8003a68:	d206      	bcs.n	8003a78 <__hexnan+0xa0>
 8003a6a:	2d07      	cmp	r5, #7
 8003a6c:	dc04      	bgt.n	8003a78 <__hexnan+0xa0>
 8003a6e:	462a      	mov	r2, r5
 8003a70:	4649      	mov	r1, r9
 8003a72:	4620      	mov	r0, r4
 8003a74:	f7ff ff8a 	bl	800398c <L_shift>
 8003a78:	4544      	cmp	r4, r8
 8003a7a:	d928      	bls.n	8003ace <__hexnan+0xf6>
 8003a7c:	4643      	mov	r3, r8
 8003a7e:	f854 2b04 	ldr.w	r2, [r4], #4
 8003a82:	f843 2b04 	str.w	r2, [r3], #4
 8003a86:	42a6      	cmp	r6, r4
 8003a88:	d2f9      	bcs.n	8003a7e <__hexnan+0xa6>
 8003a8a:	2200      	movs	r2, #0
 8003a8c:	f843 2b04 	str.w	r2, [r3], #4
 8003a90:	429e      	cmp	r6, r3
 8003a92:	d2fb      	bcs.n	8003a8c <__hexnan+0xb4>
 8003a94:	6833      	ldr	r3, [r6, #0]
 8003a96:	b91b      	cbnz	r3, 8003aa0 <__hexnan+0xc8>
 8003a98:	4546      	cmp	r6, r8
 8003a9a:	d127      	bne.n	8003aec <__hexnan+0x114>
 8003a9c:	2301      	movs	r3, #1
 8003a9e:	6033      	str	r3, [r6, #0]
 8003aa0:	2005      	movs	r0, #5
 8003aa2:	e026      	b.n	8003af2 <__hexnan+0x11a>
 8003aa4:	3501      	adds	r5, #1
 8003aa6:	2d08      	cmp	r5, #8
 8003aa8:	f10b 0b01 	add.w	fp, fp, #1
 8003aac:	dd06      	ble.n	8003abc <__hexnan+0xe4>
 8003aae:	4544      	cmp	r4, r8
 8003ab0:	d9cf      	bls.n	8003a52 <__hexnan+0x7a>
 8003ab2:	2300      	movs	r3, #0
 8003ab4:	f844 3c04 	str.w	r3, [r4, #-4]
 8003ab8:	2501      	movs	r5, #1
 8003aba:	3c04      	subs	r4, #4
 8003abc:	6822      	ldr	r2, [r4, #0]
 8003abe:	f000 000f 	and.w	r0, r0, #15
 8003ac2:	ea40 1002 	orr.w	r0, r0, r2, lsl #4
 8003ac6:	6020      	str	r0, [r4, #0]
 8003ac8:	e7c3      	b.n	8003a52 <__hexnan+0x7a>
 8003aca:	2508      	movs	r5, #8
 8003acc:	e7c1      	b.n	8003a52 <__hexnan+0x7a>
 8003ace:	9b01      	ldr	r3, [sp, #4]
 8003ad0:	2b00      	cmp	r3, #0
 8003ad2:	d0df      	beq.n	8003a94 <__hexnan+0xbc>
 8003ad4:	f04f 32ff 	mov.w	r2, #4294967295
 8003ad8:	f1c3 0320 	rsb	r3, r3, #32
 8003adc:	fa22 f303 	lsr.w	r3, r2, r3
 8003ae0:	f857 2c04 	ldr.w	r2, [r7, #-4]
 8003ae4:	401a      	ands	r2, r3
 8003ae6:	f847 2c04 	str.w	r2, [r7, #-4]
 8003aea:	e7d3      	b.n	8003a94 <__hexnan+0xbc>
 8003aec:	3e04      	subs	r6, #4
 8003aee:	e7d1      	b.n	8003a94 <__hexnan+0xbc>
 8003af0:	2004      	movs	r0, #4
 8003af2:	b007      	add	sp, #28
 8003af4:	e8bd 8ff0 	ldmia.w	sp!, {r4, r5, r6, r7, r8, r9, sl, fp, pc}

08003af8 <__locale_ctype_ptr_l>:
 8003af8:	f8d0 00ec 	ldr.w	r0, [r0, #236]	; 0xec
 8003afc:	4770      	bx	lr

08003afe <__localeconv_l>:
 8003afe:	30f0      	adds	r0, #240	; 0xf0
 8003b00:	4770      	bx	lr
	...

08003b04 <_localeconv_r>:
 8003b04:	4b04      	ldr	r3, [pc, #16]	; (8003b18 <_localeconv_r+0x14>)
 8003b06:	681b      	ldr	r3, [r3, #0]
 8003b08:	6a18      	ldr	r0, [r3, #32]
 8003b0a:	4b04      	ldr	r3, [pc, #16]	; (8003b1c <_localeconv_r+0x18>)
 8003b0c:	2800      	cmp	r0, #0
 8003b0e:	bf08      	it	eq
 8003b10:	4618      	moveq	r0, r3
 8003b12:	30f0      	adds	r0, #240	; 0xf0
 8003b14:	4770      	bx	lr
 8003b16:	bf00      	nop
 8003b18:	20000000 	.word	0x20000000
 8003b1c:	20000064 	.word	0x20000064

08003b20 <malloc>:
 8003b20:	4b02      	ldr	r3, [pc, #8]	; (8003b2c <malloc+0xc>)
 8003b22:	4601      	mov	r1, r0
 8003b24:	6818      	ldr	r0, [r3, #0]
 8003b26:	f000 bc75 	b.w	8004414 <_malloc_r>
 8003b2a:	bf00      	nop
 8003b2c:	20000000 	.word	0x20000000

08003b30 <__ascii_mbtowc>:
 8003b30:	b082      	sub	sp, #8
 8003b32:	b901      	cbnz	r1, 8003b36 <__ascii_mbtowc+0x6>
 8003b34:	a901      	add	r1, sp, #4
 8003b36:	b142      	cbz	r2, 8003b4a <__ascii_mbtowc+0x1a>
 8003b38:	b14b      	cbz	r3, 8003b4e <__ascii_mbtowc+0x1e>
 8003b3a:	7813      	ldrb	r3, [r2, #0]
 8003b3c:	600b      	str	r3, [r1, #0]
 8003b3e:	7812      	ldrb	r2, [r2, #0]
 8003b40:	1c10      	adds	r0, r2, #0
 8003b42:	bf18      	it	ne
 8003b44:	2001      	movne	r0, #1
 8003b46:	b002      	add	sp, #8
 8003b48:	4770      	bx	lr
 8003b4a:	4610      	mov	r0, r2
 8003b4c:	e7fb      	b.n	8003b46 <__ascii_mbtowc+0x16>
 8003b4e:	f06f 0001 	mvn.w	r0, #1
 8003b52:	e7f8      	b.n	8003b46 <__ascii_mbtowc+0x16>

08003b54 <memcpy>:
 8003b54:	b510      	push	{r4, lr}
 8003b56:	1e43      	subs	r3, r0, #1
 8003b58:	440a      	add	r2, r1
 8003b5a:	4291      	cmp	r1, r2
 8003b5c:	d100      	bne.n	8003b60 <memcpy+0xc>
 8003b5e:	bd10      	pop	{r4, pc}
 8003b60:	f811 4b01 	ldrb.w	r4, [r1], #1
 8003b64:	f803 4f01 	strb.w	r4, [r3, #1]!
 8003b68:	e7f7      	b.n	8003b5a <memcpy+0x6>

08003b6a <_Balloc>:
 8003b6a:	b570      	push	{r4, r5, r6, lr}
 8003b6c:	6a45      	ldr	r5, [r0, #36]	; 0x24
 8003b6e:	4604      	mov	r4, r0
 8003b70:	460e      	mov	r6, r1
 8003b72:	b93d      	cbnz	r5, 8003b84 <_Balloc+0x1a>
 8003b74:	2010      	movs	r0, #16
 8003b76:	f7ff ffd3 	bl	8003b20 <malloc>
 8003b7a:	6260      	str	r0, [r4, #36]	; 0x24
 8003b7c:	e9c0 5501 	strd	r5, r5, [r0, #4]
 8003b80:	6005      	str	r5, [r0, #0]
 8003b82:	60c5      	str	r5, [r0, #12]
 8003b84:	6a65      	ldr	r5, [r4, #36]	; 0x24
 8003b86:	68eb      	ldr	r3, [r5, #12]
 8003b88:	b183      	cbz	r3, 8003bac <_Balloc+0x42>
 8003b8a:	6a63      	ldr	r3, [r4, #36]	; 0x24
 8003b8c:	68db      	ldr	r3, [r3, #12]
 8003b8e:	f853 0026 	ldr.w	r0, [r3, r6, lsl #2]
 8003b92:	b9b8      	cbnz	r0, 8003bc4 <_Balloc+0x5a>
 8003b94:	2101      	movs	r1, #1
 8003b96:	fa01 f506 	lsl.w	r5, r1, r6
 8003b9a:	1d6a      	adds	r2, r5, #5
 8003b9c:	0092      	lsls	r2, r2, #2
 8003b9e:	4620      	mov	r0, r4
 8003ba0:	f000 fbdc 	bl	800435c <_calloc_r>
 8003ba4:	b160      	cbz	r0, 8003bc0 <_Balloc+0x56>
 8003ba6:	e9c0 6501 	strd	r6, r5, [r0, #4]
 8003baa:	e00e      	b.n	8003bca <_Balloc+0x60>
 8003bac:	2221      	movs	r2, #33	; 0x21
 8003bae:	2104      	movs	r1, #4
 8003bb0:	4620      	mov	r0, r4
 8003bb2:	f000 fbd3 	bl	800435c <_calloc_r>
 8003bb6:	6a63      	ldr	r3, [r4, #36]	; 0x24
 8003bb8:	60e8      	str	r0, [r5, #12]
 8003bba:	68db      	ldr	r3, [r3, #12]
 8003bbc:	2b00      	cmp	r3, #0
 8003bbe:	d1e4      	bne.n	8003b8a <_Balloc+0x20>
 8003bc0:	2000      	movs	r0, #0
 8003bc2:	bd70      	pop	{r4, r5, r6, pc}
 8003bc4:	6802      	ldr	r2, [r0, #0]
 8003bc6:	f843 2026 	str.w	r2, [r3, r6, lsl #2]
 8003bca:	2300      	movs	r3, #0
 8003bcc:	e9c0 3303 	strd	r3, r3, [r0, #12]
 8003bd0:	e7f7      	b.n	8003bc2 <_Balloc+0x58>

08003bd2 <_Bfree>:
 8003bd2:	b570      	push	{r4, r5, r6, lr}
 8003bd4:	6a44      	ldr	r4, [r0, #36]	; 0x24
 8003bd6:	4606      	mov	r6, r0
 8003bd8:	460d      	mov	r5, r1
 8003bda:	b93c      	cbnz	r4, 8003bec <_Bfree+0x1a>
 8003bdc:	2010      	movs	r0, #16
 8003bde:	f7ff ff9f 	bl	8003b20 <malloc>
 8003be2:	6270      	str	r0, [r6, #36]	; 0x24
 8003be4:	e9c0 4401 	strd	r4, r4, [r0, #4]
 8003be8:	6004      	str	r4, [r0, #0]
 8003bea:	60c4      	str	r4, [r0, #12]
 8003bec:	b13d      	cbz	r5, 8003bfe <_Bfree+0x2c>
 8003bee:	6a73      	ldr	r3, [r6, #36]	; 0x24
 8003bf0:	686a      	ldr	r2, [r5, #4]
 8003bf2:	68db      	ldr	r3, [r3, #12]
 8003bf4:	f853 1022 	ldr.w	r1, [r3, r2, lsl #2]
 8003bf8:	6029      	str	r1, [r5, #0]
 8003bfa:	f843 5022 	str.w	r5, [r3, r2, lsl #2]
 8003bfe:	bd70      	pop	{r4, r5, r6, pc}

08003c00 <__multadd>:
 8003c00:	e92d 41f0 	stmdb	sp!, {r4, r5, r6, r7, r8, lr}
 8003c04:	690d      	ldr	r5, [r1, #16]
 8003c06:	461f      	mov	r7, r3
 8003c08:	4606      	mov	r6, r0
 8003c0a:	460c      	mov	r4, r1
 8003c0c:	f101 0c14 	add.w	ip, r1, #20
 8003c10:	2300      	movs	r3, #0
 8003c12:	f8dc 0000 	ldr.w	r0, [ip]
 8003c16:	b281      	uxth	r1, r0
 8003c18:	fb02 7101 	mla	r1, r2, r1, r7
 8003c1c:	0c0f      	lsrs	r7, r1, #16
 8003c1e:	0c00      	lsrs	r0, r0, #16
 8003c20:	fb02 7000 	mla	r0, r2, r0, r7
 8003c24:	b289      	uxth	r1, r1
 8003c26:	3301      	adds	r3, #1
 8003c28:	eb01 4100 	add.w	r1, r1, r0, lsl #16
 8003c2c:	429d      	cmp	r5, r3
 8003c2e:	ea4f 4710 	mov.w	r7, r0, lsr #16
 8003c32:	f84c 1b04 	str.w	r1, [ip], #4
 8003c36:	dcec      	bgt.n	8003c12 <__multadd+0x12>
 8003c38:	b1d7      	cbz	r7, 8003c70 <__multadd+0x70>
 8003c3a:	68a3      	ldr	r3, [r4, #8]
 8003c3c:	42ab      	cmp	r3, r5
 8003c3e:	dc12      	bgt.n	8003c66 <__multadd+0x66>
 8003c40:	6861      	ldr	r1, [r4, #4]
 8003c42:	4630      	mov	r0, r6
 8003c44:	3101      	adds	r1, #1
 8003c46:	f7ff ff90 	bl	8003b6a <_Balloc>
 8003c4a:	6922      	ldr	r2, [r4, #16]
 8003c4c:	3202      	adds	r2, #2
 8003c4e:	f104 010c 	add.w	r1, r4, #12
 8003c52:	4680      	mov	r8, r0
 8003c54:	0092      	lsls	r2, r2, #2
 8003c56:	300c      	adds	r0, #12
 8003c58:	f7ff ff7c 	bl	8003b54 <memcpy>
 8003c5c:	4621      	mov	r1, r4
 8003c5e:	4630      	mov	r0, r6
 8003c60:	f7ff ffb7 	bl	8003bd2 <_Bfree>
 8003c64:	4644      	mov	r4, r8
 8003c66:	eb04 0385 	add.w	r3, r4, r5, lsl #2
 8003c6a:	3501      	adds	r5, #1
 8003c6c:	615f      	str	r7, [r3, #20]
 8003c6e:	6125      	str	r5, [r4, #16]
 8003c70:	4620      	mov	r0, r4
 8003c72:	e8bd 81f0 	ldmia.w	sp!, {r4, r5, r6, r7, r8, pc}

08003c76 <__s2b>:
 8003c76:	e92d 43f8 	stmdb	sp!, {r3, r4, r5, r6, r7, r8, r9, lr}
 8003c7a:	460c      	mov	r4, r1
 8003c7c:	4615      	mov	r5, r2
 8003c7e:	461f      	mov	r7, r3
 8003c80:	2209      	movs	r2, #9
 8003c82:	3308      	adds	r3, #8
 8003c84:	4606      	mov	r6, r0
 8003c86:	fb93 f3f2 	sdiv	r3, r3, r2
 8003c8a:	2100      	movs	r1, #0
 8003c8c:	2201      	movs	r2, #1
 8003c8e:	429a      	cmp	r2, r3
 8003c90:	db20      	blt.n	8003cd4 <__s2b+0x5e>
 8003c92:	4630      	mov	r0, r6
 8003c94:	f7ff ff69 	bl	8003b6a <_Balloc>
 8003c98:	9b08      	ldr	r3, [sp, #32]
 8003c9a:	6143      	str	r3, [r0, #20]
 8003c9c:	2d09      	cmp	r5, #9
 8003c9e:	f04f 0301 	mov.w	r3, #1
 8003ca2:	6103      	str	r3, [r0, #16]
 8003ca4:	dd19      	ble.n	8003cda <__s2b+0x64>
 8003ca6:	f104 0809 	add.w	r8, r4, #9
 8003caa:	46c1      	mov	r9, r8
 8003cac:	442c      	add	r4, r5
 8003cae:	f819 3b01 	ldrb.w	r3, [r9], #1
 8003cb2:	4601      	mov	r1, r0
 8003cb4:	3b30      	subs	r3, #48	; 0x30
 8003cb6:	220a      	movs	r2, #10
 8003cb8:	4630      	mov	r0, r6
 8003cba:	f7ff ffa1 	bl	8003c00 <__multadd>
 8003cbe:	45a1      	cmp	r9, r4
 8003cc0:	d1f5      	bne.n	8003cae <__s2b+0x38>
 8003cc2:	eb08 0405 	add.w	r4, r8, r5
 8003cc6:	3c08      	subs	r4, #8
 8003cc8:	1b2d      	subs	r5, r5, r4
 8003cca:	1963      	adds	r3, r4, r5
 8003ccc:	42bb      	cmp	r3, r7
 8003cce:	db07      	blt.n	8003ce0 <__s2b+0x6a>
 8003cd0:	e8bd 83f8 	ldmia.w	sp!, {r3, r4, r5, r6, r7, r8, r9, pc}
 8003cd4:	0052      	lsls	r2, r2, #1
 8003cd6:	3101      	adds	r1, #1
 8003cd8:	e7d9      	b.n	8003c8e <__s2b+0x18>
 8003cda:	340a      	adds	r4, #10
 8003cdc:	2509      	movs	r5, #9
 8003cde:	e7f3      	b.n	8003cc8 <__s2b+0x52>
 8003ce0:	f814 3b01 	ldrb.w	r3, [r4], #1
 8003ce4:	4601      	mov	r1, r0
 8003ce6:	3b30      	subs	r3, #48	; 0x30
 8003ce8:	220a      	movs	r2, #10
 8003cea:	4630      	mov	r0, r6
 8003cec:	f7ff ff88 	bl	8003c00 <__multadd>
 8003cf0:	e7eb      	b.n	8003cca <__s2b+0x54>

08003cf2 <__hi0bits>:
 8003cf2:	0c02      	lsrs	r2, r0, #16
 8003cf4:	0412      	lsls	r2, r2, #16
 8003cf6:	4603      	mov	r3, r0
 8003cf8:	b9b2      	cbnz	r2, 8003d28 <__hi0bits+0x36>
 8003cfa:	0403      	lsls	r3, r0, #16
 8003cfc:	2010      	movs	r0, #16
 8003cfe:	f013 4f7f 	tst.w	r3, #4278190080	; 0xff000000
 8003d02:	bf04      	itt	eq
 8003d04:	021b      	lsleq	r3, r3, #8
 8003d06:	3008      	addeq	r0, #8
 8003d08:	f013 4f70 	tst.w	r3, #4026531840	; 0xf0000000
 8003d0c:	bf04      	itt	eq
 8003d0e:	011b      	lsleq	r3, r3, #4
 8003d10:	3004      	addeq	r0, #4
 8003d12:	f013 4f40 	tst.w	r3, #3221225472	; 0xc0000000
 8003d16:	bf04      	itt	eq
 8003d18:	009b      	lsleq	r3, r3, #2
 8003d1a:	3002      	addeq	r0, #2
 8003d1c:	2b00      	cmp	r3, #0
 8003d1e:	db06      	blt.n	8003d2e <__hi0bits+0x3c>
 8003d20:	005b      	lsls	r3, r3, #1
 8003d22:	d503      	bpl.n	8003d2c <__hi0bits+0x3a>
 8003d24:	3001      	adds	r0, #1
 8003d26:	4770      	bx	lr
 8003d28:	2000      	movs	r0, #0
 8003d2a:	e7e8      	b.n	8003cfe <__hi0bits+0xc>
 8003d2c:	2020      	movs	r0, #32
 8003d2e:	4770      	bx	lr

08003d30 <__lo0bits>:
 8003d30:	6803      	ldr	r3, [r0, #0]
 8003d32:	f013 0207 	ands.w	r2, r3, #7
 8003d36:	4601      	mov	r1, r0
 8003d38:	d00b      	beq.n	8003d52 <__lo0bits+0x22>
 8003d3a:	07da      	lsls	r2, r3, #31
 8003d3c:	d423      	bmi.n	8003d86 <__lo0bits+0x56>
 8003d3e:	0798      	lsls	r0, r3, #30
 8003d40:	bf49      	itett	mi
 8003d42:	085b      	lsrmi	r3, r3, #1
 8003d44:	089b      	lsrpl	r3, r3, #2
 8003d46:	2001      	movmi	r0, #1
 8003d48:	600b      	strmi	r3, [r1, #0]
 8003d4a:	bf5c      	itt	pl
 8003d4c:	600b      	strpl	r3, [r1, #0]
 8003d4e:	2002      	movpl	r0, #2
 8003d50:	4770      	bx	lr
 8003d52:	b298      	uxth	r0, r3
 8003d54:	b9a8      	cbnz	r0, 8003d82 <__lo0bits+0x52>
 8003d56:	0c1b      	lsrs	r3, r3, #16
 8003d58:	2010      	movs	r0, #16
 8003d5a:	f013 0fff 	tst.w	r3, #255	; 0xff
 8003d5e:	bf04      	itt	eq
 8003d60:	0a1b      	lsreq	r3, r3, #8
 8003d62:	3008      	addeq	r0, #8
 8003d64:	071a      	lsls	r2, r3, #28
 8003d66:	bf04      	itt	eq
 8003d68:	091b      	lsreq	r3, r3, #4
 8003d6a:	3004      	addeq	r0, #4
 8003d6c:	079a      	lsls	r2, r3, #30
 8003d6e:	bf04      	itt	eq
 8003d70:	089b      	lsreq	r3, r3, #2
 8003d72:	3002      	addeq	r0, #2
 8003d74:	07da      	lsls	r2, r3, #31
 8003d76:	d402      	bmi.n	8003d7e <__lo0bits+0x4e>
 8003d78:	085b      	lsrs	r3, r3, #1
 8003d7a:	d006      	beq.n	8003d8a <__lo0bits+0x5a>
 8003d7c:	3001      	adds	r0, #1
 8003d7e:	600b      	str	r3, [r1, #0]
 8003d80:	4770      	bx	lr
 8003d82:	4610      	mov	r0, r2
 8003d84:	e7e9      	b.n	8003d5a <__lo0bits+0x2a>
 8003d86:	2000      	movs	r0, #0
 8003d88:	4770      	bx	lr
 8003d8a:	2020      	movs	r0, #32
 8003d8c:	4770      	bx	lr

08003d8e <__i2b>:
 8003d8e:	b510      	push	{r4, lr}
 8003d90:	460c      	mov	r4, r1
 8003d92:	2101      	movs	r1, #1
 8003d94:	f7ff fee9 	bl	8003b6a <_Balloc>
 8003d98:	2201      	movs	r2, #1
 8003d9a:	6144      	str	r4, [r0, #20]
 8003d9c:	6102      	str	r2, [r0, #16]
 8003d9e:	bd10      	pop	{r4, pc}

08003da0 <__multiply>:
 8003da0:	e92d 4ff7 	stmdb	sp!, {r0, r1, r2, r4, r5, r6, r7, r8, r9, sl, fp, lr}
 8003da4:	4614      	mov	r4, r2
 8003da6:	690a      	ldr	r2, [r1, #16]
 8003da8:	6923      	ldr	r3, [r4, #16]
 8003daa:	429a      	cmp	r2, r3
 8003dac:	bfb8      	it	lt
 8003dae:	460b      	movlt	r3, r1
 8003db0:	4688      	mov	r8, r1
 8003db2:	bfbc      	itt	lt
 8003db4:	46a0      	movlt	r8, r4
 8003db6:	461c      	movlt	r4, r3
 8003db8:	f8d8 7010 	ldr.w	r7, [r8, #16]
 8003dbc:	f8d4 9010 	ldr.w	r9, [r4, #16]
 8003dc0:	f8d8 3008 	ldr.w	r3, [r8, #8]
 8003dc4:	f8d8 1004 	ldr.w	r1, [r8, #4]
 8003dc8:	eb07 0609 	add.w	r6, r7, r9
 8003dcc:	42b3      	cmp	r3, r6
 8003dce:	bfb8      	it	lt
 8003dd0:	3101      	addlt	r1, #1
 8003dd2:	f7ff feca 	bl	8003b6a <_Balloc>
 8003dd6:	f100 0514 	add.w	r5, r0, #20
 8003dda:	eb05 0e86 	add.w	lr, r5, r6, lsl #2
 8003dde:	462b      	mov	r3, r5
 8003de0:	2200      	movs	r2, #0
 8003de2:	4573      	cmp	r3, lr
 8003de4:	d316      	bcc.n	8003e14 <__multiply+0x74>
 8003de6:	f104 0214 	add.w	r2, r4, #20
 8003dea:	f108 0114 	add.w	r1, r8, #20
 8003dee:	eb02 0389 	add.w	r3, r2, r9, lsl #2
 8003df2:	eb01 0787 	add.w	r7, r1, r7, lsl #2
 8003df6:	9300      	str	r3, [sp, #0]
 8003df8:	9b00      	ldr	r3, [sp, #0]
 8003dfa:	9201      	str	r2, [sp, #4]
 8003dfc:	4293      	cmp	r3, r2
 8003dfe:	d80c      	bhi.n	8003e1a <__multiply+0x7a>
 8003e00:	2e00      	cmp	r6, #0
 8003e02:	dd03      	ble.n	8003e0c <__multiply+0x6c>
 8003e04:	f85e 3d04 	ldr.w	r3, [lr, #-4]!
 8003e08:	2b00      	cmp	r3, #0
 8003e0a:	d05d      	beq.n	8003ec8 <__multiply+0x128>
 8003e0c:	6106      	str	r6, [r0, #16]
 8003e0e:	b003      	add	sp, #12
 8003e10:	e8bd 8ff0 	ldmia.w	sp!, {r4, r5, r6, r7, r8, r9, sl, fp, pc}
 8003e14:	f843 2b04 	str.w	r2, [r3], #4
 8003e18:	e7e3      	b.n	8003de2 <__multiply+0x42>
 8003e1a:	f8b2 b000 	ldrh.w	fp, [r2]
 8003e1e:	f1bb 0f00 	cmp.w	fp, #0
 8003e22:	d023      	beq.n	8003e6c <__multiply+0xcc>
 8003e24:	4689      	mov	r9, r1
 8003e26:	46ac      	mov	ip, r5
 8003e28:	f04f 0800 	mov.w	r8, #0
 8003e2c:	f859 4b04 	ldr.w	r4, [r9], #4
 8003e30:	f8dc a000 	ldr.w	sl, [ip]
 8003e34:	b2a3      	uxth	r3, r4
 8003e36:	fa1f fa8a 	uxth.w	sl, sl
 8003e3a:	fb0b a303 	mla	r3, fp, r3, sl
 8003e3e:	ea4f 4a14 	mov.w	sl, r4, lsr #16
 8003e42:	f8dc 4000 	ldr.w	r4, [ip]
 8003e46:	4443      	add	r3, r8
 8003e48:	ea4f 4814 	mov.w	r8, r4, lsr #16
 8003e4c:	fb0b 840a 	mla	r4, fp, sl, r8
 8003e50:	eb04 4413 	add.w	r4, r4, r3, lsr #16
 8003e54:	46e2      	mov	sl, ip
 8003e56:	b29b      	uxth	r3, r3
 8003e58:	ea43 4304 	orr.w	r3, r3, r4, lsl #16
 8003e5c:	454f      	cmp	r7, r9
 8003e5e:	ea4f 4814 	mov.w	r8, r4, lsr #16
 8003e62:	f84a 3b04 	str.w	r3, [sl], #4
 8003e66:	d82b      	bhi.n	8003ec0 <__multiply+0x120>
 8003e68:	f8cc 8004 	str.w	r8, [ip, #4]
 8003e6c:	9b01      	ldr	r3, [sp, #4]
 8003e6e:	f8b3 a002 	ldrh.w	sl, [r3, #2]
 8003e72:	3204      	adds	r2, #4
 8003e74:	f1ba 0f00 	cmp.w	sl, #0
 8003e78:	d020      	beq.n	8003ebc <__multiply+0x11c>
 8003e7a:	682b      	ldr	r3, [r5, #0]
 8003e7c:	4689      	mov	r9, r1
 8003e7e:	46a8      	mov	r8, r5
 8003e80:	f04f 0b00 	mov.w	fp, #0
 8003e84:	f8b9 c000 	ldrh.w	ip, [r9]
 8003e88:	f8b8 4002 	ldrh.w	r4, [r8, #2]
 8003e8c:	fb0a 440c 	mla	r4, sl, ip, r4
 8003e90:	445c      	add	r4, fp
 8003e92:	46c4      	mov	ip, r8
 8003e94:	b29b      	uxth	r3, r3
 8003e96:	ea43 4304 	orr.w	r3, r3, r4, lsl #16
 8003e9a:	f84c 3b04 	str.w	r3, [ip], #4
 8003e9e:	f859 3b04 	ldr.w	r3, [r9], #4
 8003ea2:	f8b8 b004 	ldrh.w	fp, [r8, #4]
 8003ea6:	0c1b      	lsrs	r3, r3, #16
 8003ea8:	fb0a b303 	mla	r3, sl, r3, fp
 8003eac:	eb03 4314 	add.w	r3, r3, r4, lsr #16
 8003eb0:	454f      	cmp	r7, r9
 8003eb2:	ea4f 4b13 	mov.w	fp, r3, lsr #16
 8003eb6:	d805      	bhi.n	8003ec4 <__multiply+0x124>
 8003eb8:	f8c8 3004 	str.w	r3, [r8, #4]
 8003ebc:	3504      	adds	r5, #4
 8003ebe:	e79b      	b.n	8003df8 <__multiply+0x58>
 8003ec0:	46d4      	mov	ip, sl
 8003ec2:	e7b3      	b.n	8003e2c <__multiply+0x8c>
 8003ec4:	46e0      	mov	r8, ip
 8003ec6:	e7dd      	b.n	8003e84 <__multiply+0xe4>
 8003ec8:	3e01      	subs	r6, #1
 8003eca:	e799      	b.n	8003e00 <__multiply+0x60>

08003ecc <__pow5mult>:
 8003ecc:	e92d 43f8 	stmdb	sp!, {r3, r4, r5, r6, r7, r8, r9, lr}
 8003ed0:	4615      	mov	r5, r2
 8003ed2:	f012 0203 	ands.w	r2, r2, #3
 8003ed6:	4606      	mov	r6, r0
 8003ed8:	460f      	mov	r7, r1
 8003eda:	d007      	beq.n	8003eec <__pow5mult+0x20>
 8003edc:	3a01      	subs	r2, #1
 8003ede:	4c21      	ldr	r4, [pc, #132]	; (8003f64 <__pow5mult+0x98>)
 8003ee0:	2300      	movs	r3, #0
 8003ee2:	f854 2022 	ldr.w	r2, [r4, r2, lsl #2]
 8003ee6:	f7ff fe8b 	bl	8003c00 <__multadd>
 8003eea:	4607      	mov	r7, r0
 8003eec:	10ad      	asrs	r5, r5, #2
 8003eee:	d035      	beq.n	8003f5c <__pow5mult+0x90>
 8003ef0:	6a74      	ldr	r4, [r6, #36]	; 0x24
 8003ef2:	b93c      	cbnz	r4, 8003f04 <__pow5mult+0x38>
 8003ef4:	2010      	movs	r0, #16
 8003ef6:	f7ff fe13 	bl	8003b20 <malloc>
 8003efa:	6270      	str	r0, [r6, #36]	; 0x24
 8003efc:	e9c0 4401 	strd	r4, r4, [r0, #4]
 8003f00:	6004      	str	r4, [r0, #0]
 8003f02:	60c4      	str	r4, [r0, #12]
 8003f04:	f8d6 8024 	ldr.w	r8, [r6, #36]	; 0x24
 8003f08:	f8d8 4008 	ldr.w	r4, [r8, #8]
 8003f0c:	b94c      	cbnz	r4, 8003f22 <__pow5mult+0x56>
 8003f0e:	f240 2171 	movw	r1, #625	; 0x271
 8003f12:	4630      	mov	r0, r6
 8003f14:	f7ff ff3b 	bl	8003d8e <__i2b>
 8003f18:	2300      	movs	r3, #0
 8003f1a:	f8c8 0008 	str.w	r0, [r8, #8]
 8003f1e:	4604      	mov	r4, r0
 8003f20:	6003      	str	r3, [r0, #0]
 8003f22:	f04f 0800 	mov.w	r8, #0
 8003f26:	07eb      	lsls	r3, r5, #31
 8003f28:	d50a      	bpl.n	8003f40 <__pow5mult+0x74>
 8003f2a:	4639      	mov	r1, r7
 8003f2c:	4622      	mov	r2, r4
 8003f2e:	4630      	mov	r0, r6
 8003f30:	f7ff ff36 	bl	8003da0 <__multiply>
 8003f34:	4639      	mov	r1, r7
 8003f36:	4681      	mov	r9, r0
 8003f38:	4630      	mov	r0, r6
 8003f3a:	f7ff fe4a 	bl	8003bd2 <_Bfree>
 8003f3e:	464f      	mov	r7, r9
 8003f40:	106d      	asrs	r5, r5, #1
 8003f42:	d00b      	beq.n	8003f5c <__pow5mult+0x90>
 8003f44:	6820      	ldr	r0, [r4, #0]
 8003f46:	b938      	cbnz	r0, 8003f58 <__pow5mult+0x8c>
 8003f48:	4622      	mov	r2, r4
 8003f4a:	4621      	mov	r1, r4
 8003f4c:	4630      	mov	r0, r6
 8003f4e:	f7ff ff27 	bl	8003da0 <__multiply>
 8003f52:	6020      	str	r0, [r4, #0]
 8003f54:	f8c0 8000 	str.w	r8, [r0]
 8003f58:	4604      	mov	r4, r0
 8003f5a:	e7e4      	b.n	8003f26 <__pow5mult+0x5a>
 8003f5c:	4638      	mov	r0, r7
 8003f5e:	e8bd 83f8 	ldmia.w	sp!, {r3, r4, r5, r6, r7, r8, r9, pc}
 8003f62:	bf00      	nop
 8003f64:	08004a78 	.word	0x08004a78

08003f68 <__lshift>:
 8003f68:	e92d 47f0 	stmdb	sp!, {r4, r5, r6, r7, r8, r9, sl, lr}
 8003f6c:	460c      	mov	r4, r1
 8003f6e:	ea4f 1a62 	mov.w	sl, r2, asr #5
 8003f72:	6923      	ldr	r3, [r4, #16]
 8003f74:	6849      	ldr	r1, [r1, #4]
 8003f76:	eb0a 0903 	add.w	r9, sl, r3
 8003f7a:	68a3      	ldr	r3, [r4, #8]
 8003f7c:	4607      	mov	r7, r0
 8003f7e:	4616      	mov	r6, r2
 8003f80:	f109 0501 	add.w	r5, r9, #1
 8003f84:	42ab      	cmp	r3, r5
 8003f86:	db32      	blt.n	8003fee <__lshift+0x86>
 8003f88:	4638      	mov	r0, r7
 8003f8a:	f7ff fdee 	bl	8003b6a <_Balloc>
 8003f8e:	2300      	movs	r3, #0
 8003f90:	4680      	mov	r8, r0
 8003f92:	f100 0114 	add.w	r1, r0, #20
 8003f96:	461a      	mov	r2, r3
 8003f98:	4553      	cmp	r3, sl
 8003f9a:	db2b      	blt.n	8003ff4 <__lshift+0x8c>
 8003f9c:	6920      	ldr	r0, [r4, #16]
 8003f9e:	ea2a 7aea 	bic.w	sl, sl, sl, asr #31
 8003fa2:	f104 0314 	add.w	r3, r4, #20
 8003fa6:	f016 021f 	ands.w	r2, r6, #31
 8003faa:	eb01 018a 	add.w	r1, r1, sl, lsl #2
 8003fae:	eb03 0c80 	add.w	ip, r3, r0, lsl #2
 8003fb2:	d025      	beq.n	8004000 <__lshift+0x98>
 8003fb4:	f1c2 0e20 	rsb	lr, r2, #32
 8003fb8:	2000      	movs	r0, #0
 8003fba:	681e      	ldr	r6, [r3, #0]
 8003fbc:	468a      	mov	sl, r1
 8003fbe:	4096      	lsls	r6, r2
 8003fc0:	4330      	orrs	r0, r6
 8003fc2:	f84a 0b04 	str.w	r0, [sl], #4
 8003fc6:	f853 0b04 	ldr.w	r0, [r3], #4
 8003fca:	459c      	cmp	ip, r3
 8003fcc:	fa20 f00e 	lsr.w	r0, r0, lr
 8003fd0:	d814      	bhi.n	8003ffc <__lshift+0x94>
 8003fd2:	6048      	str	r0, [r1, #4]
 8003fd4:	b108      	cbz	r0, 8003fda <__lshift+0x72>
 8003fd6:	f109 0502 	add.w	r5, r9, #2
 8003fda:	3d01      	subs	r5, #1
 8003fdc:	4638      	mov	r0, r7
 8003fde:	f8c8 5010 	str.w	r5, [r8, #16]
 8003fe2:	4621      	mov	r1, r4
 8003fe4:	f7ff fdf5 	bl	8003bd2 <_Bfree>
 8003fe8:	4640      	mov	r0, r8
 8003fea:	e8bd 87f0 	ldmia.w	sp!, {r4, r5, r6, r7, r8, r9, sl, pc}
 8003fee:	3101      	adds	r1, #1
 8003ff0:	005b      	lsls	r3, r3, #1
 8003ff2:	e7c7      	b.n	8003f84 <__lshift+0x1c>
 8003ff4:	f841 2023 	str.w	r2, [r1, r3, lsl #2]
 8003ff8:	3301      	adds	r3, #1
 8003ffa:	e7cd      	b.n	8003f98 <__lshift+0x30>
 8003ffc:	4651      	mov	r1, sl
 8003ffe:	e7dc      	b.n	8003fba <__lshift+0x52>
 8004000:	3904      	subs	r1, #4
 8004002:	f853 2b04 	ldr.w	r2, [r3], #4
 8004006:	f841 2f04 	str.w	r2, [r1, #4]!
 800400a:	459c      	cmp	ip, r3
 800400c:	d8f9      	bhi.n	8004002 <__lshift+0x9a>
 800400e:	e7e4      	b.n	8003fda <__lshift+0x72>

08004010 <__mcmp>:
 8004010:	6903      	ldr	r3, [r0, #16]
 8004012:	690a      	ldr	r2, [r1, #16]
 8004014:	1a9b      	subs	r3, r3, r2
 8004016:	b530      	push	{r4, r5, lr}
 8004018:	d10c      	bne.n	8004034 <__mcmp+0x24>
 800401a:	0092      	lsls	r2, r2, #2
 800401c:	3014      	adds	r0, #20
 800401e:	3114      	adds	r1, #20
 8004020:	1884      	adds	r4, r0, r2
 8004022:	4411      	add	r1, r2
 8004024:	f854 5d04 	ldr.w	r5, [r4, #-4]!
 8004028:	f851 2d04 	ldr.w	r2, [r1, #-4]!
 800402c:	4295      	cmp	r5, r2
 800402e:	d003      	beq.n	8004038 <__mcmp+0x28>
 8004030:	d305      	bcc.n	800403e <__mcmp+0x2e>
 8004032:	2301      	movs	r3, #1
 8004034:	4618      	mov	r0, r3
 8004036:	bd30      	pop	{r4, r5, pc}
 8004038:	42a0      	cmp	r0, r4
 800403a:	d3f3      	bcc.n	8004024 <__mcmp+0x14>
 800403c:	e7fa      	b.n	8004034 <__mcmp+0x24>
 800403e:	f04f 33ff 	mov.w	r3, #4294967295
 8004042:	e7f7      	b.n	8004034 <__mcmp+0x24>

08004044 <__mdiff>:
 8004044:	e92d 47f0 	stmdb	sp!, {r4, r5, r6, r7, r8, r9, sl, lr}
 8004048:	460d      	mov	r5, r1
 800404a:	4607      	mov	r7, r0
 800404c:	4611      	mov	r1, r2
 800404e:	4628      	mov	r0, r5
 8004050:	4614      	mov	r4, r2
 8004052:	f7ff ffdd 	bl	8004010 <__mcmp>
 8004056:	1e06      	subs	r6, r0, #0
 8004058:	d108      	bne.n	800406c <__mdiff+0x28>
 800405a:	4631      	mov	r1, r6
 800405c:	4638      	mov	r0, r7
 800405e:	f7ff fd84 	bl	8003b6a <_Balloc>
 8004062:	2301      	movs	r3, #1
 8004064:	e9c0 3604 	strd	r3, r6, [r0, #16]
 8004068:	e8bd 87f0 	ldmia.w	sp!, {r4, r5, r6, r7, r8, r9, sl, pc}
 800406c:	bfa4      	itt	ge
 800406e:	4623      	movge	r3, r4
 8004070:	462c      	movge	r4, r5
 8004072:	4638      	mov	r0, r7
 8004074:	6861      	ldr	r1, [r4, #4]
 8004076:	bfa6      	itte	ge
 8004078:	461d      	movge	r5, r3
 800407a:	2600      	movge	r6, #0
 800407c:	2601      	movlt	r6, #1
 800407e:	f7ff fd74 	bl	8003b6a <_Balloc>
 8004082:	692b      	ldr	r3, [r5, #16]
 8004084:	60c6      	str	r6, [r0, #12]
 8004086:	6926      	ldr	r6, [r4, #16]
 8004088:	f105 0914 	add.w	r9, r5, #20
 800408c:	f104 0214 	add.w	r2, r4, #20
 8004090:	eb02 0786 	add.w	r7, r2, r6, lsl #2
 8004094:	eb09 0883 	add.w	r8, r9, r3, lsl #2
 8004098:	f100 0514 	add.w	r5, r0, #20
 800409c:	f04f 0e00 	mov.w	lr, #0
 80040a0:	f852 ab04 	ldr.w	sl, [r2], #4
 80040a4:	f859 4b04 	ldr.w	r4, [r9], #4
 80040a8:	fa1e f18a 	uxtah	r1, lr, sl
 80040ac:	b2a3      	uxth	r3, r4
 80040ae:	1ac9      	subs	r1, r1, r3
 80040b0:	0c23      	lsrs	r3, r4, #16
 80040b2:	ebc3 431a 	rsb	r3, r3, sl, lsr #16
 80040b6:	eb03 4321 	add.w	r3, r3, r1, asr #16
 80040ba:	b289      	uxth	r1, r1
 80040bc:	ea4f 4e23 	mov.w	lr, r3, asr #16
 80040c0:	45c8      	cmp	r8, r9
 80040c2:	ea41 4303 	orr.w	r3, r1, r3, lsl #16
 80040c6:	4694      	mov	ip, r2
 80040c8:	f845 3b04 	str.w	r3, [r5], #4
 80040cc:	d8e8      	bhi.n	80040a0 <__mdiff+0x5c>
 80040ce:	45bc      	cmp	ip, r7
 80040d0:	d304      	bcc.n	80040dc <__mdiff+0x98>
 80040d2:	f855 3d04 	ldr.w	r3, [r5, #-4]!
 80040d6:	b183      	cbz	r3, 80040fa <__mdiff+0xb6>
 80040d8:	6106      	str	r6, [r0, #16]
 80040da:	e7c5      	b.n	8004068 <__mdiff+0x24>
 80040dc:	f85c 1b04 	ldr.w	r1, [ip], #4
 80040e0:	fa1e f381 	uxtah	r3, lr, r1
 80040e4:	141a      	asrs	r2, r3, #16
 80040e6:	eb02 4211 	add.w	r2, r2, r1, lsr #16
 80040ea:	b29b      	uxth	r3, r3
 80040ec:	ea43 4302 	orr.w	r3, r3, r2, lsl #16
 80040f0:	ea4f 4e22 	mov.w	lr, r2, asr #16
 80040f4:	f845 3b04 	str.w	r3, [r5], #4
 80040f8:	e7e9      	b.n	80040ce <__mdiff+0x8a>
 80040fa:	3e01      	subs	r6, #1
 80040fc:	e7e9      	b.n	80040d2 <__mdiff+0x8e>
	...

08004100 <__ulp>:
 8004100:	4b10      	ldr	r3, [pc, #64]	; (8004144 <__ulp+0x44>)
 8004102:	400b      	ands	r3, r1
 8004104:	f1a3 7350 	sub.w	r3, r3, #54525952	; 0x3400000
 8004108:	2b00      	cmp	r3, #0
 800410a:	dd02      	ble.n	8004112 <__ulp+0x12>
 800410c:	2000      	movs	r0, #0
 800410e:	4619      	mov	r1, r3
 8004110:	4770      	bx	lr
 8004112:	425b      	negs	r3, r3
 8004114:	151b      	asrs	r3, r3, #20
 8004116:	2b13      	cmp	r3, #19
 8004118:	f04f 0000 	mov.w	r0, #0
 800411c:	f04f 0100 	mov.w	r1, #0
 8004120:	dc04      	bgt.n	800412c <__ulp+0x2c>
 8004122:	f44f 2200 	mov.w	r2, #524288	; 0x80000
 8004126:	fa42 f103 	asr.w	r1, r2, r3
 800412a:	4770      	bx	lr
 800412c:	3b14      	subs	r3, #20
 800412e:	2b1e      	cmp	r3, #30
 8004130:	f04f 0201 	mov.w	r2, #1
 8004134:	bfda      	itte	le
 8004136:	f1c3 031f 	rsble	r3, r3, #31
 800413a:	fa02 f303 	lslle.w	r3, r2, r3
 800413e:	4613      	movgt	r3, r2
 8004140:	4618      	mov	r0, r3
 8004142:	4770      	bx	lr
 8004144:	7ff00000 	.word	0x7ff00000

08004148 <__b2d>:
 8004148:	e92d 43f8 	stmdb	sp!, {r3, r4, r5, r6, r7, r8, r9, lr}
 800414c:	6907      	ldr	r7, [r0, #16]
 800414e:	f100 0914 	add.w	r9, r0, #20
 8004152:	eb09 0787 	add.w	r7, r9, r7, lsl #2
 8004156:	f1a7 0804 	sub.w	r8, r7, #4
 800415a:	f857 6c04 	ldr.w	r6, [r7, #-4]
 800415e:	4630      	mov	r0, r6
 8004160:	f7ff fdc7 	bl	8003cf2 <__hi0bits>
 8004164:	f1c0 0320 	rsb	r3, r0, #32
 8004168:	280a      	cmp	r0, #10
 800416a:	600b      	str	r3, [r1, #0]
 800416c:	491e      	ldr	r1, [pc, #120]	; (80041e8 <__b2d+0xa0>)
 800416e:	dc17      	bgt.n	80041a0 <__b2d+0x58>
 8004170:	f1c0 0c0b 	rsb	ip, r0, #11
 8004174:	45c1      	cmp	r9, r8
 8004176:	fa26 f30c 	lsr.w	r3, r6, ip
 800417a:	bf38      	it	cc
 800417c:	f857 2c08 	ldrcc.w	r2, [r7, #-8]
 8004180:	ea43 0501 	orr.w	r5, r3, r1
 8004184:	bf28      	it	cs
 8004186:	2200      	movcs	r2, #0
 8004188:	f100 0315 	add.w	r3, r0, #21
 800418c:	fa06 f303 	lsl.w	r3, r6, r3
 8004190:	fa22 f20c 	lsr.w	r2, r2, ip
 8004194:	ea43 0402 	orr.w	r4, r3, r2
 8004198:	4620      	mov	r0, r4
 800419a:	4629      	mov	r1, r5
 800419c:	e8bd 83f8 	ldmia.w	sp!, {r3, r4, r5, r6, r7, r8, r9, pc}
 80041a0:	45c1      	cmp	r9, r8
 80041a2:	bf3a      	itte	cc
 80041a4:	f1a7 0808 	subcc.w	r8, r7, #8
 80041a8:	f857 2c08 	ldrcc.w	r2, [r7, #-8]
 80041ac:	2200      	movcs	r2, #0
 80041ae:	f1b0 030b 	subs.w	r3, r0, #11
 80041b2:	d015      	beq.n	80041e0 <__b2d+0x98>
 80041b4:	409e      	lsls	r6, r3
 80041b6:	f1c3 0720 	rsb	r7, r3, #32
 80041ba:	f046 567f 	orr.w	r6, r6, #1069547520	; 0x3fc00000
 80041be:	fa22 f107 	lsr.w	r1, r2, r7
 80041c2:	45c8      	cmp	r8, r9
 80041c4:	f446 1640 	orr.w	r6, r6, #3145728	; 0x300000
 80041c8:	ea46 0501 	orr.w	r5, r6, r1
 80041cc:	bf8c      	ite	hi
 80041ce:	f858 1c04 	ldrhi.w	r1, [r8, #-4]
 80041d2:	2100      	movls	r1, #0
 80041d4:	fa02 f003 	lsl.w	r0, r2, r3
 80041d8:	40f9      	lsrs	r1, r7
 80041da:	ea40 0401 	orr.w	r4, r0, r1
 80041de:	e7db      	b.n	8004198 <__b2d+0x50>
 80041e0:	ea46 0501 	orr.w	r5, r6, r1
 80041e4:	4614      	mov	r4, r2
 80041e6:	e7d7      	b.n	8004198 <__b2d+0x50>
 80041e8:	3ff00000 	.word	0x3ff00000

080041ec <__d2b>:
 80041ec:	e92d 41f3 	stmdb	sp!, {r0, r1, r4, r5, r6, r7, r8, lr}
 80041f0:	2101      	movs	r1, #1
 80041f2:	461c      	mov	r4, r3
 80041f4:	4690      	mov	r8, r2
 80041f6:	e9dd 6508 	ldrd	r6, r5, [sp, #32]
 80041fa:	f7ff fcb6 	bl	8003b6a <_Balloc>
 80041fe:	f3c4 0213 	ubfx	r2, r4, #0, #20
 8004202:	f3c4 540a 	ubfx	r4, r4, #20, #11
 8004206:	4607      	mov	r7, r0
 8004208:	bb34      	cbnz	r4, 8004258 <__d2b+0x6c>
 800420a:	9201      	str	r2, [sp, #4]
 800420c:	f1b8 0200 	subs.w	r2, r8, #0
 8004210:	d027      	beq.n	8004262 <__d2b+0x76>
 8004212:	a802      	add	r0, sp, #8
 8004214:	f840 2d08 	str.w	r2, [r0, #-8]!
 8004218:	f7ff fd8a 	bl	8003d30 <__lo0bits>
 800421c:	9900      	ldr	r1, [sp, #0]
 800421e:	b1f0      	cbz	r0, 800425e <__d2b+0x72>
 8004220:	9a01      	ldr	r2, [sp, #4]
 8004222:	f1c0 0320 	rsb	r3, r0, #32
 8004226:	fa02 f303 	lsl.w	r3, r2, r3
 800422a:	430b      	orrs	r3, r1
 800422c:	40c2      	lsrs	r2, r0
 800422e:	617b      	str	r3, [r7, #20]
 8004230:	9201      	str	r2, [sp, #4]
 8004232:	9b01      	ldr	r3, [sp, #4]
 8004234:	61bb      	str	r3, [r7, #24]
 8004236:	2b00      	cmp	r3, #0
 8004238:	bf14      	ite	ne
 800423a:	2102      	movne	r1, #2
 800423c:	2101      	moveq	r1, #1
 800423e:	6139      	str	r1, [r7, #16]
 8004240:	b1c4      	cbz	r4, 8004274 <__d2b+0x88>
 8004242:	f2a4 4433 	subw	r4, r4, #1075	; 0x433
 8004246:	4404      	add	r4, r0
 8004248:	6034      	str	r4, [r6, #0]
 800424a:	f1c0 0035 	rsb	r0, r0, #53	; 0x35
 800424e:	6028      	str	r0, [r5, #0]
 8004250:	4638      	mov	r0, r7
 8004252:	b002      	add	sp, #8
 8004254:	e8bd 81f0 	ldmia.w	sp!, {r4, r5, r6, r7, r8, pc}
 8004258:	f442 1280 	orr.w	r2, r2, #1048576	; 0x100000
 800425c:	e7d5      	b.n	800420a <__d2b+0x1e>
 800425e:	6179      	str	r1, [r7, #20]
 8004260:	e7e7      	b.n	8004232 <__d2b+0x46>
 8004262:	a801      	add	r0, sp, #4
 8004264:	f7ff fd64 	bl	8003d30 <__lo0bits>
 8004268:	9b01      	ldr	r3, [sp, #4]
 800426a:	617b      	str	r3, [r7, #20]
 800426c:	2101      	movs	r1, #1
 800426e:	6139      	str	r1, [r7, #16]
 8004270:	3020      	adds	r0, #32
 8004272:	e7e5      	b.n	8004240 <__d2b+0x54>
 8004274:	eb07 0381 	add.w	r3, r7, r1, lsl #2
 8004278:	f2a0 4032 	subw	r0, r0, #1074	; 0x432
 800427c:	6030      	str	r0, [r6, #0]
 800427e:	6918      	ldr	r0, [r3, #16]
 8004280:	f7ff fd37 	bl	8003cf2 <__hi0bits>
 8004284:	ebc0 1041 	rsb	r0, r0, r1, lsl #5
 8004288:	e7e1      	b.n	800424e <__d2b+0x62>

0800428a <__ratio>:
 800428a:	e92d 4ff7 	stmdb	sp!, {r0, r1, r2, r4, r5, r6, r7, r8, r9, sl, fp, lr}
 800428e:	4688      	mov	r8, r1
 8004290:	4669      	mov	r1, sp
 8004292:	4681      	mov	r9, r0
 8004294:	f7ff ff58 	bl	8004148 <__b2d>
 8004298:	468b      	mov	fp, r1
 800429a:	4606      	mov	r6, r0
 800429c:	460f      	mov	r7, r1
 800429e:	4640      	mov	r0, r8
 80042a0:	a901      	add	r1, sp, #4
 80042a2:	f7ff ff51 	bl	8004148 <__b2d>
 80042a6:	f8d9 3010 	ldr.w	r3, [r9, #16]
 80042aa:	f8d8 2010 	ldr.w	r2, [r8, #16]
 80042ae:	eba3 0c02 	sub.w	ip, r3, r2
 80042b2:	e9dd 3200 	ldrd	r3, r2, [sp]
 80042b6:	1a9b      	subs	r3, r3, r2
 80042b8:	eb03 134c 	add.w	r3, r3, ip, lsl #5
 80042bc:	2b00      	cmp	r3, #0
 80042be:	bfd5      	itete	le
 80042c0:	460a      	movle	r2, r1
 80042c2:	463a      	movgt	r2, r7
 80042c4:	ebc3 3303 	rsble	r3, r3, r3, lsl #12
 80042c8:	eb02 5b03 	addgt.w	fp, r2, r3, lsl #20
 80042cc:	460d      	mov	r5, r1
 80042ce:	bfd8      	it	le
 80042d0:	eb02 5503 	addle.w	r5, r2, r3, lsl #20
 80042d4:	462b      	mov	r3, r5
 80042d6:	4602      	mov	r2, r0
 80042d8:	4659      	mov	r1, fp
 80042da:	4630      	mov	r0, r6
 80042dc:	f7fc fad6 	bl	800088c <__aeabi_ddiv>
 80042e0:	b003      	add	sp, #12
 80042e2:	e8bd 8ff0 	ldmia.w	sp!, {r4, r5, r6, r7, r8, r9, sl, fp, pc}

080042e6 <__copybits>:
 80042e6:	3901      	subs	r1, #1
 80042e8:	b510      	push	{r4, lr}
 80042ea:	1149      	asrs	r1, r1, #5
 80042ec:	6914      	ldr	r4, [r2, #16]
 80042ee:	3101      	adds	r1, #1
 80042f0:	f102 0314 	add.w	r3, r2, #20
 80042f4:	eb00 0181 	add.w	r1, r0, r1, lsl #2
 80042f8:	eb03 0484 	add.w	r4, r3, r4, lsl #2
 80042fc:	42a3      	cmp	r3, r4
 80042fe:	4602      	mov	r2, r0
 8004300:	d303      	bcc.n	800430a <__copybits+0x24>
 8004302:	2300      	movs	r3, #0
 8004304:	428a      	cmp	r2, r1
 8004306:	d305      	bcc.n	8004314 <__copybits+0x2e>
 8004308:	bd10      	pop	{r4, pc}
 800430a:	f853 2b04 	ldr.w	r2, [r3], #4
 800430e:	f840 2b04 	str.w	r2, [r0], #4
 8004312:	e7f3      	b.n	80042fc <__copybits+0x16>
 8004314:	f842 3b04 	str.w	r3, [r2], #4
 8004318:	e7f4      	b.n	8004304 <__copybits+0x1e>

0800431a <__any_on>:
 800431a:	f100 0214 	add.w	r2, r0, #20
 800431e:	6900      	ldr	r0, [r0, #16]
 8004320:	114b      	asrs	r3, r1, #5
 8004322:	4298      	cmp	r0, r3
 8004324:	b510      	push	{r4, lr}
 8004326:	db11      	blt.n	800434c <__any_on+0x32>
 8004328:	dd0a      	ble.n	8004340 <__any_on+0x26>
 800432a:	f011 011f 	ands.w	r1, r1, #31
 800432e:	d007      	beq.n	8004340 <__any_on+0x26>
 8004330:	f852 4023 	ldr.w	r4, [r2, r3, lsl #2]
 8004334:	fa24 f001 	lsr.w	r0, r4, r1
 8004338:	fa00 f101 	lsl.w	r1, r0, r1
 800433c:	428c      	cmp	r4, r1
 800433e:	d10b      	bne.n	8004358 <__any_on+0x3e>
 8004340:	eb02 0383 	add.w	r3, r2, r3, lsl #2
 8004344:	4293      	cmp	r3, r2
 8004346:	d803      	bhi.n	8004350 <__any_on+0x36>
 8004348:	2000      	movs	r0, #0
 800434a:	bd10      	pop	{r4, pc}
 800434c:	4603      	mov	r3, r0
 800434e:	e7f7      	b.n	8004340 <__any_on+0x26>
 8004350:	f853 1d04 	ldr.w	r1, [r3, #-4]!
 8004354:	2900      	cmp	r1, #0
 8004356:	d0f5      	beq.n	8004344 <__any_on+0x2a>
 8004358:	2001      	movs	r0, #1
 800435a:	e7f6      	b.n	800434a <__any_on+0x30>

0800435c <_calloc_r>:
 800435c:	b538      	push	{r3, r4, r5, lr}
 800435e:	fb02 f401 	mul.w	r4, r2, r1
 8004362:	4621      	mov	r1, r4
 8004364:	f000 f856 	bl	8004414 <_malloc_r>
 8004368:	4605      	mov	r5, r0
 800436a:	b118      	cbz	r0, 8004374 <_calloc_r+0x18>
 800436c:	4622      	mov	r2, r4
 800436e:	2100      	movs	r1, #0
 8004370:	f7fc fd3c 	bl	8000dec <memset>
 8004374:	4628      	mov	r0, r5
 8004376:	bd38      	pop	{r3, r4, r5, pc}

08004378 <_free_r>:
 8004378:	b538      	push	{r3, r4, r5, lr}
 800437a:	4605      	mov	r5, r0
 800437c:	2900      	cmp	r1, #0
 800437e:	d045      	beq.n	800440c <_free_r+0x94>
 8004380:	f851 3c04 	ldr.w	r3, [r1, #-4]
 8004384:	1f0c      	subs	r4, r1, #4
 8004386:	2b00      	cmp	r3, #0
 8004388:	bfb8      	it	lt
 800438a:	18e4      	addlt	r4, r4, r3
 800438c:	f000 fa36 	bl	80047fc <__malloc_lock>
 8004390:	4a1f      	ldr	r2, [pc, #124]	; (8004410 <_free_r+0x98>)
 8004392:	6813      	ldr	r3, [r2, #0]
 8004394:	4610      	mov	r0, r2
 8004396:	b933      	cbnz	r3, 80043a6 <_free_r+0x2e>
 8004398:	6063      	str	r3, [r4, #4]
 800439a:	6014      	str	r4, [r2, #0]
 800439c:	4628      	mov	r0, r5
 800439e:	e8bd 4038 	ldmia.w	sp!, {r3, r4, r5, lr}
 80043a2:	f000 ba2c 	b.w	80047fe <__malloc_unlock>
 80043a6:	42a3      	cmp	r3, r4
 80043a8:	d90c      	bls.n	80043c4 <_free_r+0x4c>
 80043aa:	6821      	ldr	r1, [r4, #0]
 80043ac:	1862      	adds	r2, r4, r1
 80043ae:	4293      	cmp	r3, r2
 80043b0:	bf04      	itt	eq
 80043b2:	681a      	ldreq	r2, [r3, #0]
 80043b4:	685b      	ldreq	r3, [r3, #4]
 80043b6:	6063      	str	r3, [r4, #4]
 80043b8:	bf04      	itt	eq
 80043ba:	1852      	addeq	r2, r2, r1
 80043bc:	6022      	streq	r2, [r4, #0]
 80043be:	6004      	str	r4, [r0, #0]
 80043c0:	e7ec      	b.n	800439c <_free_r+0x24>
 80043c2:	4613      	mov	r3, r2
 80043c4:	685a      	ldr	r2, [r3, #4]
 80043c6:	b10a      	cbz	r2, 80043cc <_free_r+0x54>
 80043c8:	42a2      	cmp	r2, r4
 80043ca:	d9fa      	bls.n	80043c2 <_free_r+0x4a>
 80043cc:	6819      	ldr	r1, [r3, #0]
 80043ce:	1858      	adds	r0, r3, r1
 80043d0:	42a0      	cmp	r0, r4
 80043d2:	d10b      	bne.n	80043ec <_free_r+0x74>
 80043d4:	6820      	ldr	r0, [r4, #0]
 80043d6:	4401      	add	r1, r0
 80043d8:	1858      	adds	r0, r3, r1
 80043da:	4282      	cmp	r2, r0
 80043dc:	6019      	str	r1, [r3, #0]
 80043de:	d1dd      	bne.n	800439c <_free_r+0x24>
 80043e0:	6810      	ldr	r0, [r2, #0]
 80043e2:	6852      	ldr	r2, [r2, #4]
 80043e4:	605a      	str	r2, [r3, #4]
 80043e6:	4401      	add	r1, r0
 80043e8:	6019      	str	r1, [r3, #0]
 80043ea:	e7d7      	b.n	800439c <_free_r+0x24>
 80043ec:	d902      	bls.n	80043f4 <_free_r+0x7c>
 80043ee:	230c      	movs	r3, #12
 80043f0:	602b      	str	r3, [r5, #0]
 80043f2:	e7d3      	b.n	800439c <_free_r+0x24>
 80043f4:	6820      	ldr	r0, [r4, #0]
 80043f6:	1821      	adds	r1, r4, r0
 80043f8:	428a      	cmp	r2, r1
 80043fa:	bf04      	itt	eq
 80043fc:	6811      	ldreq	r1, [r2, #0]
 80043fe:	6852      	ldreq	r2, [r2, #4]
 8004400:	6062      	str	r2, [r4, #4]
 8004402:	bf04      	itt	eq
 8004404:	1809      	addeq	r1, r1, r0
 8004406:	6021      	streq	r1, [r4, #0]
 8004408:	605c      	str	r4, [r3, #4]
 800440a:	e7c7      	b.n	800439c <_free_r+0x24>
 800440c:	bd38      	pop	{r3, r4, r5, pc}
 800440e:	bf00      	nop
 8004410:	200001f0 	.word	0x200001f0

08004414 <_malloc_r>:
 8004414:	b570      	push	{r4, r5, r6, lr}
 8004416:	1ccd      	adds	r5, r1, #3
 8004418:	f025 0503 	bic.w	r5, r5, #3
 800441c:	3508      	adds	r5, #8
 800441e:	2d0c      	cmp	r5, #12
 8004420:	bf38      	it	cc
 8004422:	250c      	movcc	r5, #12
 8004424:	2d00      	cmp	r5, #0
 8004426:	4606      	mov	r6, r0
 8004428:	db01      	blt.n	800442e <_malloc_r+0x1a>
 800442a:	42a9      	cmp	r1, r5
 800442c:	d903      	bls.n	8004436 <_malloc_r+0x22>
 800442e:	230c      	movs	r3, #12
 8004430:	6033      	str	r3, [r6, #0]
 8004432:	2000      	movs	r0, #0
 8004434:	bd70      	pop	{r4, r5, r6, pc}
 8004436:	f000 f9e1 	bl	80047fc <__malloc_lock>
 800443a:	4a21      	ldr	r2, [pc, #132]	; (80044c0 <_malloc_r+0xac>)
 800443c:	6814      	ldr	r4, [r2, #0]
 800443e:	4621      	mov	r1, r4
 8004440:	b991      	cbnz	r1, 8004468 <_malloc_r+0x54>
 8004442:	4c20      	ldr	r4, [pc, #128]	; (80044c4 <_malloc_r+0xb0>)
 8004444:	6823      	ldr	r3, [r4, #0]
 8004446:	b91b      	cbnz	r3, 8004450 <_malloc_r+0x3c>
 8004448:	4630      	mov	r0, r6
 800444a:	f000 f98f 	bl	800476c <_sbrk_r>
 800444e:	6020      	str	r0, [r4, #0]
 8004450:	4629      	mov	r1, r5
 8004452:	4630      	mov	r0, r6
 8004454:	f000 f98a 	bl	800476c <_sbrk_r>
 8004458:	1c43      	adds	r3, r0, #1
 800445a:	d124      	bne.n	80044a6 <_malloc_r+0x92>
 800445c:	230c      	movs	r3, #12
 800445e:	6033      	str	r3, [r6, #0]
 8004460:	4630      	mov	r0, r6
 8004462:	f000 f9cc 	bl	80047fe <__malloc_unlock>
 8004466:	e7e4      	b.n	8004432 <_malloc_r+0x1e>
 8004468:	680b      	ldr	r3, [r1, #0]
 800446a:	1b5b      	subs	r3, r3, r5
 800446c:	d418      	bmi.n	80044a0 <_malloc_r+0x8c>
 800446e:	2b0b      	cmp	r3, #11
 8004470:	d90f      	bls.n	8004492 <_malloc_r+0x7e>
 8004472:	600b      	str	r3, [r1, #0]
 8004474:	50cd      	str	r5, [r1, r3]
 8004476:	18cc      	adds	r4, r1, r3
 8004478:	4630      	mov	r0, r6
 800447a:	f000 f9c0 	bl	80047fe <__malloc_unlock>
 800447e:	f104 000b 	add.w	r0, r4, #11
 8004482:	1d23      	adds	r3, r4, #4
 8004484:	f020 0007 	bic.w	r0, r0, #7
 8004488:	1ac3      	subs	r3, r0, r3
 800448a:	d0d3      	beq.n	8004434 <_malloc_r+0x20>
 800448c:	425a      	negs	r2, r3
 800448e:	50e2      	str	r2, [r4, r3]
 8004490:	e7d0      	b.n	8004434 <_malloc_r+0x20>
 8004492:	428c      	cmp	r4, r1
 8004494:	684b      	ldr	r3, [r1, #4]
 8004496:	bf16      	itet	ne
 8004498:	6063      	strne	r3, [r4, #4]
 800449a:	6013      	streq	r3, [r2, #0]
 800449c:	460c      	movne	r4, r1
 800449e:	e7eb      	b.n	8004478 <_malloc_r+0x64>
 80044a0:	460c      	mov	r4, r1
 80044a2:	6849      	ldr	r1, [r1, #4]
 80044a4:	e7cc      	b.n	8004440 <_malloc_r+0x2c>
 80044a6:	1cc4      	adds	r4, r0, #3
 80044a8:	f024 0403 	bic.w	r4, r4, #3
 80044ac:	42a0      	cmp	r0, r4
 80044ae:	d005      	beq.n	80044bc <_malloc_r+0xa8>
 80044b0:	1a21      	subs	r1, r4, r0
 80044b2:	4630      	mov	r0, r6
 80044b4:	f000 f95a 	bl	800476c <_sbrk_r>
 80044b8:	3001      	adds	r0, #1
 80044ba:	d0cf      	beq.n	800445c <_malloc_r+0x48>
 80044bc:	6025      	str	r5, [r4, #0]
 80044be:	e7db      	b.n	8004478 <_malloc_r+0x64>
 80044c0:	200001f0 	.word	0x200001f0
 80044c4:	200001f4 	.word	0x200001f4

080044c8 <__ssputs_r>:
 80044c8:	e92d 47f0 	stmdb	sp!, {r4, r5, r6, r7, r8, r9, sl, lr}
 80044cc:	688e      	ldr	r6, [r1, #8]
 80044ce:	429e      	cmp	r6, r3
 80044d0:	4682      	mov	sl, r0
 80044d2:	460c      	mov	r4, r1
 80044d4:	4690      	mov	r8, r2
 80044d6:	4699      	mov	r9, r3
 80044d8:	d837      	bhi.n	800454a <__ssputs_r+0x82>
 80044da:	898a      	ldrh	r2, [r1, #12]
 80044dc:	f412 6f90 	tst.w	r2, #1152	; 0x480
 80044e0:	d031      	beq.n	8004546 <__ssputs_r+0x7e>
 80044e2:	6825      	ldr	r5, [r4, #0]
 80044e4:	6909      	ldr	r1, [r1, #16]
 80044e6:	1a6f      	subs	r7, r5, r1
 80044e8:	6965      	ldr	r5, [r4, #20]
 80044ea:	2302      	movs	r3, #2
 80044ec:	eb05 0545 	add.w	r5, r5, r5, lsl #1
 80044f0:	fb95 f5f3 	sdiv	r5, r5, r3
 80044f4:	f109 0301 	add.w	r3, r9, #1
 80044f8:	443b      	add	r3, r7
 80044fa:	429d      	cmp	r5, r3
 80044fc:	bf38      	it	cc
 80044fe:	461d      	movcc	r5, r3
 8004500:	0553      	lsls	r3, r2, #21
 8004502:	d530      	bpl.n	8004566 <__ssputs_r+0x9e>
 8004504:	4629      	mov	r1, r5
 8004506:	f7ff ff85 	bl	8004414 <_malloc_r>
 800450a:	4606      	mov	r6, r0
 800450c:	b950      	cbnz	r0, 8004524 <__ssputs_r+0x5c>
 800450e:	230c      	movs	r3, #12
 8004510:	f8ca 3000 	str.w	r3, [sl]
 8004514:	89a3      	ldrh	r3, [r4, #12]
 8004516:	f043 0340 	orr.w	r3, r3, #64	; 0x40
 800451a:	81a3      	strh	r3, [r4, #12]
 800451c:	f04f 30ff 	mov.w	r0, #4294967295
 8004520:	e8bd 87f0 	ldmia.w	sp!, {r4, r5, r6, r7, r8, r9, sl, pc}
 8004524:	463a      	mov	r2, r7
 8004526:	6921      	ldr	r1, [r4, #16]
 8004528:	f7ff fb14 	bl	8003b54 <memcpy>
 800452c:	89a3      	ldrh	r3, [r4, #12]
 800452e:	f423 6390 	bic.w	r3, r3, #1152	; 0x480
 8004532:	f043 0380 	orr.w	r3, r3, #128	; 0x80
 8004536:	81a3      	strh	r3, [r4, #12]
 8004538:	6126      	str	r6, [r4, #16]
 800453a:	6165      	str	r5, [r4, #20]
 800453c:	443e      	add	r6, r7
 800453e:	1bed      	subs	r5, r5, r7
 8004540:	6026      	str	r6, [r4, #0]
 8004542:	60a5      	str	r5, [r4, #8]
 8004544:	464e      	mov	r6, r9
 8004546:	454e      	cmp	r6, r9
 8004548:	d900      	bls.n	800454c <__ssputs_r+0x84>
 800454a:	464e      	mov	r6, r9
 800454c:	4632      	mov	r2, r6
 800454e:	4641      	mov	r1, r8
 8004550:	6820      	ldr	r0, [r4, #0]
 8004552:	f000 f93a 	bl	80047ca <memmove>
 8004556:	68a3      	ldr	r3, [r4, #8]
 8004558:	1b9b      	subs	r3, r3, r6
 800455a:	60a3      	str	r3, [r4, #8]
 800455c:	6823      	ldr	r3, [r4, #0]
 800455e:	441e      	add	r6, r3
 8004560:	6026      	str	r6, [r4, #0]
 8004562:	2000      	movs	r0, #0
 8004564:	e7dc      	b.n	8004520 <__ssputs_r+0x58>
 8004566:	462a      	mov	r2, r5
 8004568:	f000 f94a 	bl	8004800 <_realloc_r>
 800456c:	4606      	mov	r6, r0
 800456e:	2800      	cmp	r0, #0
 8004570:	d1e2      	bne.n	8004538 <__ssputs_r+0x70>
 8004572:	6921      	ldr	r1, [r4, #16]
 8004574:	4650      	mov	r0, sl
 8004576:	f7ff feff 	bl	8004378 <_free_r>
 800457a:	e7c8      	b.n	800450e <__ssputs_r+0x46>

0800457c <_svfiprintf_r>:
 800457c:	e92d 4ff0 	stmdb	sp!, {r4, r5, r6, r7, r8, r9, sl, fp, lr}
 8004580:	461d      	mov	r5, r3
 8004582:	898b      	ldrh	r3, [r1, #12]
 8004584:	061f      	lsls	r7, r3, #24
 8004586:	b09d      	sub	sp, #116	; 0x74
 8004588:	4680      	mov	r8, r0
 800458a:	460c      	mov	r4, r1
 800458c:	4616      	mov	r6, r2
 800458e:	d50f      	bpl.n	80045b0 <_svfiprintf_r+0x34>
 8004590:	690b      	ldr	r3, [r1, #16]
 8004592:	b96b      	cbnz	r3, 80045b0 <_svfiprintf_r+0x34>
 8004594:	2140      	movs	r1, #64	; 0x40
 8004596:	f7ff ff3d 	bl	8004414 <_malloc_r>
 800459a:	6020      	str	r0, [r4, #0]
 800459c:	6120      	str	r0, [r4, #16]
 800459e:	b928      	cbnz	r0, 80045ac <_svfiprintf_r+0x30>
 80045a0:	230c      	movs	r3, #12
 80045a2:	f8c8 3000 	str.w	r3, [r8]
 80045a6:	f04f 30ff 	mov.w	r0, #4294967295
 80045aa:	e0c8      	b.n	800473e <_svfiprintf_r+0x1c2>
 80045ac:	2340      	movs	r3, #64	; 0x40
 80045ae:	6163      	str	r3, [r4, #20]
 80045b0:	2300      	movs	r3, #0
 80045b2:	9309      	str	r3, [sp, #36]	; 0x24
 80045b4:	2320      	movs	r3, #32
 80045b6:	f88d 3029 	strb.w	r3, [sp, #41]	; 0x29
 80045ba:	2330      	movs	r3, #48	; 0x30
 80045bc:	f88d 302a 	strb.w	r3, [sp, #42]	; 0x2a
 80045c0:	9503      	str	r5, [sp, #12]
 80045c2:	f04f 0b01 	mov.w	fp, #1
 80045c6:	4637      	mov	r7, r6
 80045c8:	463d      	mov	r5, r7
 80045ca:	f815 3b01 	ldrb.w	r3, [r5], #1
 80045ce:	b10b      	cbz	r3, 80045d4 <_svfiprintf_r+0x58>
 80045d0:	2b25      	cmp	r3, #37	; 0x25
 80045d2:	d13e      	bne.n	8004652 <_svfiprintf_r+0xd6>
 80045d4:	ebb7 0a06 	subs.w	sl, r7, r6
 80045d8:	d00b      	beq.n	80045f2 <_svfiprintf_r+0x76>
 80045da:	4653      	mov	r3, sl
 80045dc:	4632      	mov	r2, r6
 80045de:	4621      	mov	r1, r4
 80045e0:	4640      	mov	r0, r8
 80045e2:	f7ff ff71 	bl	80044c8 <__ssputs_r>
 80045e6:	3001      	adds	r0, #1
 80045e8:	f000 80a4 	beq.w	8004734 <_svfiprintf_r+0x1b8>
 80045ec:	9b09      	ldr	r3, [sp, #36]	; 0x24
 80045ee:	4453      	add	r3, sl
 80045f0:	9309      	str	r3, [sp, #36]	; 0x24
 80045f2:	783b      	ldrb	r3, [r7, #0]
 80045f4:	2b00      	cmp	r3, #0
 80045f6:	f000 809d 	beq.w	8004734 <_svfiprintf_r+0x1b8>
 80045fa:	2300      	movs	r3, #0
 80045fc:	f04f 32ff 	mov.w	r2, #4294967295
 8004600:	e9cd 2305 	strd	r2, r3, [sp, #20]
 8004604:	9304      	str	r3, [sp, #16]
 8004606:	9307      	str	r3, [sp, #28]
 8004608:	f88d 3053 	strb.w	r3, [sp, #83]	; 0x53
 800460c:	931a      	str	r3, [sp, #104]	; 0x68
 800460e:	462f      	mov	r7, r5
 8004610:	2205      	movs	r2, #5
 8004612:	f817 1b01 	ldrb.w	r1, [r7], #1
 8004616:	4850      	ldr	r0, [pc, #320]	; (8004758 <_svfiprintf_r+0x1dc>)
 8004618:	f7fb fe02 	bl	8000220 <memchr>
 800461c:	9b04      	ldr	r3, [sp, #16]
 800461e:	b9d0      	cbnz	r0, 8004656 <_svfiprintf_r+0xda>
 8004620:	06d9      	lsls	r1, r3, #27
 8004622:	bf44      	itt	mi
 8004624:	2220      	movmi	r2, #32
 8004626:	f88d 2053 	strbmi.w	r2, [sp, #83]	; 0x53
 800462a:	071a      	lsls	r2, r3, #28
 800462c:	bf44      	itt	mi
 800462e:	222b      	movmi	r2, #43	; 0x2b
 8004630:	f88d 2053 	strbmi.w	r2, [sp, #83]	; 0x53
 8004634:	782a      	ldrb	r2, [r5, #0]
 8004636:	2a2a      	cmp	r2, #42	; 0x2a
 8004638:	d015      	beq.n	8004666 <_svfiprintf_r+0xea>
 800463a:	9a07      	ldr	r2, [sp, #28]
 800463c:	462f      	mov	r7, r5
 800463e:	2000      	movs	r0, #0
 8004640:	250a      	movs	r5, #10
 8004642:	4639      	mov	r1, r7
 8004644:	f811 3b01 	ldrb.w	r3, [r1], #1
 8004648:	3b30      	subs	r3, #48	; 0x30
 800464a:	2b09      	cmp	r3, #9
 800464c:	d94d      	bls.n	80046ea <_svfiprintf_r+0x16e>
 800464e:	b1b8      	cbz	r0, 8004680 <_svfiprintf_r+0x104>
 8004650:	e00f      	b.n	8004672 <_svfiprintf_r+0xf6>
 8004652:	462f      	mov	r7, r5
 8004654:	e7b8      	b.n	80045c8 <_svfiprintf_r+0x4c>
 8004656:	4a40      	ldr	r2, [pc, #256]	; (8004758 <_svfiprintf_r+0x1dc>)
 8004658:	1a80      	subs	r0, r0, r2
 800465a:	fa0b f000 	lsl.w	r0, fp, r0
 800465e:	4318      	orrs	r0, r3
 8004660:	9004      	str	r0, [sp, #16]
 8004662:	463d      	mov	r5, r7
 8004664:	e7d3      	b.n	800460e <_svfiprintf_r+0x92>
 8004666:	9a03      	ldr	r2, [sp, #12]
 8004668:	1d11      	adds	r1, r2, #4
 800466a:	6812      	ldr	r2, [r2, #0]
 800466c:	9103      	str	r1, [sp, #12]
 800466e:	2a00      	cmp	r2, #0
 8004670:	db01      	blt.n	8004676 <_svfiprintf_r+0xfa>
 8004672:	9207      	str	r2, [sp, #28]
 8004674:	e004      	b.n	8004680 <_svfiprintf_r+0x104>
 8004676:	4252      	negs	r2, r2
 8004678:	f043 0302 	orr.w	r3, r3, #2
 800467c:	9207      	str	r2, [sp, #28]
 800467e:	9304      	str	r3, [sp, #16]
 8004680:	783b      	ldrb	r3, [r7, #0]
 8004682:	2b2e      	cmp	r3, #46	; 0x2e
 8004684:	d10c      	bne.n	80046a0 <_svfiprintf_r+0x124>
 8004686:	787b      	ldrb	r3, [r7, #1]
 8004688:	2b2a      	cmp	r3, #42	; 0x2a
 800468a:	d133      	bne.n	80046f4 <_svfiprintf_r+0x178>
 800468c:	9b03      	ldr	r3, [sp, #12]
 800468e:	1d1a      	adds	r2, r3, #4
 8004690:	681b      	ldr	r3, [r3, #0]
 8004692:	9203      	str	r2, [sp, #12]
 8004694:	2b00      	cmp	r3, #0
 8004696:	bfb8      	it	lt
 8004698:	f04f 33ff 	movlt.w	r3, #4294967295
 800469c:	3702      	adds	r7, #2
 800469e:	9305      	str	r3, [sp, #20]
 80046a0:	4d2e      	ldr	r5, [pc, #184]	; (800475c <_svfiprintf_r+0x1e0>)
 80046a2:	7839      	ldrb	r1, [r7, #0]
 80046a4:	2203      	movs	r2, #3
 80046a6:	4628      	mov	r0, r5
 80046a8:	f7fb fdba 	bl	8000220 <memchr>
 80046ac:	b138      	cbz	r0, 80046be <_svfiprintf_r+0x142>
 80046ae:	2340      	movs	r3, #64	; 0x40
 80046b0:	1b40      	subs	r0, r0, r5
 80046b2:	fa03 f000 	lsl.w	r0, r3, r0
 80046b6:	9b04      	ldr	r3, [sp, #16]
 80046b8:	4303      	orrs	r3, r0
 80046ba:	3701      	adds	r7, #1
 80046bc:	9304      	str	r3, [sp, #16]
 80046be:	7839      	ldrb	r1, [r7, #0]
 80046c0:	4827      	ldr	r0, [pc, #156]	; (8004760 <_svfiprintf_r+0x1e4>)
 80046c2:	f88d 1028 	strb.w	r1, [sp, #40]	; 0x28
 80046c6:	2206      	movs	r2, #6
 80046c8:	1c7e      	adds	r6, r7, #1
 80046ca:	f7fb fda9 	bl	8000220 <memchr>
 80046ce:	2800      	cmp	r0, #0
 80046d0:	d038      	beq.n	8004744 <_svfiprintf_r+0x1c8>
 80046d2:	4b24      	ldr	r3, [pc, #144]	; (8004764 <_svfiprintf_r+0x1e8>)
 80046d4:	bb13      	cbnz	r3, 800471c <_svfiprintf_r+0x1a0>
 80046d6:	9b03      	ldr	r3, [sp, #12]
 80046d8:	3307      	adds	r3, #7
 80046da:	f023 0307 	bic.w	r3, r3, #7
 80046de:	3308      	adds	r3, #8
 80046e0:	9303      	str	r3, [sp, #12]
 80046e2:	9b09      	ldr	r3, [sp, #36]	; 0x24
 80046e4:	444b      	add	r3, r9
 80046e6:	9309      	str	r3, [sp, #36]	; 0x24
 80046e8:	e76d      	b.n	80045c6 <_svfiprintf_r+0x4a>
 80046ea:	fb05 3202 	mla	r2, r5, r2, r3
 80046ee:	2001      	movs	r0, #1
 80046f0:	460f      	mov	r7, r1
 80046f2:	e7a6      	b.n	8004642 <_svfiprintf_r+0xc6>
 80046f4:	2300      	movs	r3, #0
 80046f6:	3701      	adds	r7, #1
 80046f8:	9305      	str	r3, [sp, #20]
 80046fa:	4619      	mov	r1, r3
 80046fc:	250a      	movs	r5, #10
 80046fe:	4638      	mov	r0, r7
 8004700:	f810 2b01 	ldrb.w	r2, [r0], #1
 8004704:	3a30      	subs	r2, #48	; 0x30
 8004706:	2a09      	cmp	r2, #9
 8004708:	d903      	bls.n	8004712 <_svfiprintf_r+0x196>
 800470a:	2b00      	cmp	r3, #0
 800470c:	d0c8      	beq.n	80046a0 <_svfiprintf_r+0x124>
 800470e:	9105      	str	r1, [sp, #20]
 8004710:	e7c6      	b.n	80046a0 <_svfiprintf_r+0x124>
 8004712:	fb05 2101 	mla	r1, r5, r1, r2
 8004716:	2301      	movs	r3, #1
 8004718:	4607      	mov	r7, r0
 800471a:	e7f0      	b.n	80046fe <_svfiprintf_r+0x182>
 800471c:	ab03      	add	r3, sp, #12
 800471e:	9300      	str	r3, [sp, #0]
 8004720:	4622      	mov	r2, r4
 8004722:	4b11      	ldr	r3, [pc, #68]	; (8004768 <_svfiprintf_r+0x1ec>)
 8004724:	a904      	add	r1, sp, #16
 8004726:	4640      	mov	r0, r8
 8004728:	f7fc fbf8 	bl	8000f1c <_printf_float>
 800472c:	f1b0 3fff 	cmp.w	r0, #4294967295
 8004730:	4681      	mov	r9, r0
 8004732:	d1d6      	bne.n	80046e2 <_svfiprintf_r+0x166>
 8004734:	89a3      	ldrh	r3, [r4, #12]
 8004736:	065b      	lsls	r3, r3, #25
 8004738:	f53f af35 	bmi.w	80045a6 <_svfiprintf_r+0x2a>
 800473c:	9809      	ldr	r0, [sp, #36]	; 0x24
 800473e:	b01d      	add	sp, #116	; 0x74
 8004740:	e8bd 8ff0 	ldmia.w	sp!, {r4, r5, r6, r7, r8, r9, sl, fp, pc}
 8004744:	ab03      	add	r3, sp, #12
 8004746:	9300      	str	r3, [sp, #0]
 8004748:	4622      	mov	r2, r4
 800474a:	4b07      	ldr	r3, [pc, #28]	; (8004768 <_svfiprintf_r+0x1ec>)
 800474c:	a904      	add	r1, sp, #16
 800474e:	4640      	mov	r0, r8
 8004750:	f7fc fe90 	bl	8001474 <_printf_i>
 8004754:	e7ea      	b.n	800472c <_svfiprintf_r+0x1b0>
 8004756:	bf00      	nop
 8004758:	08004a84 	.word	0x08004a84
 800475c:	08004a8a 	.word	0x08004a8a
 8004760:	08004a8e 	.word	0x08004a8e
 8004764:	08000f1d 	.word	0x08000f1d
 8004768:	080044c9 	.word	0x080044c9

0800476c <_sbrk_r>:
 800476c:	b538      	push	{r3, r4, r5, lr}
 800476e:	4c06      	ldr	r4, [pc, #24]	; (8004788 <_sbrk_r+0x1c>)
 8004770:	2300      	movs	r3, #0
 8004772:	4605      	mov	r5, r0
 8004774:	4608      	mov	r0, r1
 8004776:	6023      	str	r3, [r4, #0]
 8004778:	f7fc faae 	bl	8000cd8 <_sbrk>
 800477c:	1c43      	adds	r3, r0, #1
 800477e:	d102      	bne.n	8004786 <_sbrk_r+0x1a>
 8004780:	6823      	ldr	r3, [r4, #0]
 8004782:	b103      	cbz	r3, 8004786 <_sbrk_r+0x1a>
 8004784:	602b      	str	r3, [r5, #0]
 8004786:	bd38      	pop	{r3, r4, r5, pc}
 8004788:	200001f8 	.word	0x200001f8

0800478c <strncmp>:
 800478c:	b510      	push	{r4, lr}
 800478e:	b16a      	cbz	r2, 80047ac <strncmp+0x20>
 8004790:	3901      	subs	r1, #1
 8004792:	1884      	adds	r4, r0, r2
 8004794:	f810 3b01 	ldrb.w	r3, [r0], #1
 8004798:	f811 2f01 	ldrb.w	r2, [r1, #1]!
 800479c:	4293      	cmp	r3, r2
 800479e:	d103      	bne.n	80047a8 <strncmp+0x1c>
 80047a0:	42a0      	cmp	r0, r4
 80047a2:	d001      	beq.n	80047a8 <strncmp+0x1c>
 80047a4:	2b00      	cmp	r3, #0
 80047a6:	d1f5      	bne.n	8004794 <strncmp+0x8>
 80047a8:	1a98      	subs	r0, r3, r2
 80047aa:	bd10      	pop	{r4, pc}
 80047ac:	4610      	mov	r0, r2
 80047ae:	e7fc      	b.n	80047aa <strncmp+0x1e>

080047b0 <__ascii_wctomb>:
 80047b0:	b149      	cbz	r1, 80047c6 <__ascii_wctomb+0x16>
 80047b2:	2aff      	cmp	r2, #255	; 0xff
 80047b4:	bf85      	ittet	hi
 80047b6:	238a      	movhi	r3, #138	; 0x8a
 80047b8:	6003      	strhi	r3, [r0, #0]
 80047ba:	700a      	strbls	r2, [r1, #0]
 80047bc:	f04f 30ff 	movhi.w	r0, #4294967295
 80047c0:	bf98      	it	ls
 80047c2:	2001      	movls	r0, #1
 80047c4:	4770      	bx	lr
 80047c6:	4608      	mov	r0, r1
 80047c8:	4770      	bx	lr

080047ca <memmove>:
 80047ca:	4288      	cmp	r0, r1
 80047cc:	b510      	push	{r4, lr}
 80047ce:	eb01 0302 	add.w	r3, r1, r2
 80047d2:	d807      	bhi.n	80047e4 <memmove+0x1a>
 80047d4:	1e42      	subs	r2, r0, #1
 80047d6:	4299      	cmp	r1, r3
 80047d8:	d00a      	beq.n	80047f0 <memmove+0x26>
 80047da:	f811 4b01 	ldrb.w	r4, [r1], #1
 80047de:	f802 4f01 	strb.w	r4, [r2, #1]!
 80047e2:	e7f8      	b.n	80047d6 <memmove+0xc>
 80047e4:	4283      	cmp	r3, r0
 80047e6:	d9f5      	bls.n	80047d4 <memmove+0xa>
 80047e8:	1881      	adds	r1, r0, r2
 80047ea:	1ad2      	subs	r2, r2, r3
 80047ec:	42d3      	cmn	r3, r2
 80047ee:	d100      	bne.n	80047f2 <memmove+0x28>
 80047f0:	bd10      	pop	{r4, pc}
 80047f2:	f813 4d01 	ldrb.w	r4, [r3, #-1]!
 80047f6:	f801 4d01 	strb.w	r4, [r1, #-1]!
 80047fa:	e7f7      	b.n	80047ec <memmove+0x22>

080047fc <__malloc_lock>:
 80047fc:	4770      	bx	lr

080047fe <__malloc_unlock>:
 80047fe:	4770      	bx	lr

08004800 <_realloc_r>:
 8004800:	b5f8      	push	{r3, r4, r5, r6, r7, lr}
 8004802:	4607      	mov	r7, r0
 8004804:	4614      	mov	r4, r2
 8004806:	460e      	mov	r6, r1
 8004808:	b921      	cbnz	r1, 8004814 <_realloc_r+0x14>
 800480a:	4611      	mov	r1, r2
 800480c:	e8bd 40f8 	ldmia.w	sp!, {r3, r4, r5, r6, r7, lr}
 8004810:	f7ff be00 	b.w	8004414 <_malloc_r>
 8004814:	b922      	cbnz	r2, 8004820 <_realloc_r+0x20>
 8004816:	f7ff fdaf 	bl	8004378 <_free_r>
 800481a:	4625      	mov	r5, r4
 800481c:	4628      	mov	r0, r5
 800481e:	bdf8      	pop	{r3, r4, r5, r6, r7, pc}
 8004820:	f000 f814 	bl	800484c <_malloc_usable_size_r>
 8004824:	42a0      	cmp	r0, r4
 8004826:	d20f      	bcs.n	8004848 <_realloc_r+0x48>
 8004828:	4621      	mov	r1, r4
 800482a:	4638      	mov	r0, r7
 800482c:	f7ff fdf2 	bl	8004414 <_malloc_r>
 8004830:	4605      	mov	r5, r0
 8004832:	2800      	cmp	r0, #0
 8004834:	d0f2      	beq.n	800481c <_realloc_r+0x1c>
 8004836:	4631      	mov	r1, r6
 8004838:	4622      	mov	r2, r4
 800483a:	f7ff f98b 	bl	8003b54 <memcpy>
 800483e:	4631      	mov	r1, r6
 8004840:	4638      	mov	r0, r7
 8004842:	f7ff fd99 	bl	8004378 <_free_r>
 8004846:	e7e9      	b.n	800481c <_realloc_r+0x1c>
 8004848:	4635      	mov	r5, r6
 800484a:	e7e7      	b.n	800481c <_realloc_r+0x1c>

0800484c <_malloc_usable_size_r>:
 800484c:	f851 3c04 	ldr.w	r3, [r1, #-4]
 8004850:	1f18      	subs	r0, r3, #4
 8004852:	2b00      	cmp	r3, #0
 8004854:	bfbc      	itt	lt
 8004856:	580b      	ldrlt	r3, [r1, r0]
 8004858:	18c0      	addlt	r0, r0, r3
 800485a:	4770      	bx	lr

0800485c <_init>:
 800485c:	b5f8      	push	{r3, r4, r5, r6, r7, lr}
 800485e:	bf00      	nop
 8004860:	bcf8      	pop	{r3, r4, r5, r6, r7}
 8004862:	bc08      	pop	{r3}
 8004864:	469e      	mov	lr, r3
 8004866:	4770      	bx	lr

08004868 <_fini>:
 8004868:	b5f8      	push	{r3, r4, r5, r6, r7, lr}
 800486a:	bf00      	nop
 800486c:	bcf8      	pop	{r3, r4, r5, r6, r7}
 800486e:	bc08      	pop	{r3}
 8004870:	469e      	mov	lr, r3
 8004872:	4770      	bx	lr
